

Microchip Technology PIC18 LITE Macro Assembler V1.30 build 55553 
                                                                                               Fri Feb 14 14:32:26 2014

Microchip Technology Omniscient Code Generator (Lite mode) build 55553
     1                           	processor	18F4550
     2                           	fnconf	rparam,??,?,0
     3                           	opt	pw 120
     4                           	opt	lm
     5                           	psect	smallconst,global,reloc=2,class=SMALLCONST,delta=1
     6                           	psect	_FlashSignatureWord_const,global,ovrld,reloc=2,class=CODE,delta=1
     7                           	psect	cinit,global,reloc=2,class=CODE,delta=1
     8                           	psect	bssCOMRAM,global,class=COMRAM,space=1,delta=1
     9                           	psect	bssBANK0,global,class=BANK0,space=1,delta=1
    10                           	psect	bssBANK1,global,class=BANK1,space=1,delta=1
    11                           	psect	cstackCOMRAM,global,class=COMRAM,space=1,delta=1
    12                           	psect	text0,global,reloc=2,class=CODE,delta=1
    13                           	psect	_BootMain_text,global,ovrld,reloc=2,class=CODE,delta=1
    14                           	psect	text2,global,reloc=2,class=CODE,delta=1
    15                           	psect	text3,global,reloc=2,class=CODE,delta=1
    16                           	psect	text4,global,reloc=2,class=CODE,delta=1
    17                           	psect	text5,global,reloc=2,class=CODE,delta=1
    18                           	psect	text6,global,reloc=2,class=CODE,delta=1
    19                           	psect	text7,global,reloc=2,class=CODE,delta=1
    20                           	psect	text8,global,reloc=2,class=CODE,delta=1
    21                           	psect	text9,global,reloc=2,class=CODE,delta=1
    22                           	psect	text10,global,reloc=2,class=CODE,delta=1
    23                           	psect	text11,global,reloc=2,class=CODE,delta=1
    24                           	psect	text12,global,reloc=2,class=CODE,delta=1
    25                           	psect	text13,global,reloc=2,class=CODE,delta=1
    26                           	psect	text14,global,reloc=2,class=CODE,delta=1
    27                           	psect	text15,global,reloc=2,class=CODE,delta=1
    28                           	psect	text16,global,reloc=2,class=CODE,delta=1
    29                           	psect	text17,global,reloc=2,class=CODE,delta=1
    30                           	psect	text18,global,reloc=2,class=CODE,delta=1
    31                           	psect	text19,global,reloc=2,class=CODE,delta=1
    32                           	psect	text20,global,reloc=2,class=CODE,delta=1
    33                           	psect	text21,global,reloc=2,class=CODE,delta=1
    34                           	psect	text22,global,reloc=2,class=CODE,delta=1
    35                           	psect	text23,global,reloc=2,class=CODE,delta=1
    36                           	psect	text24,global,reloc=2,class=CODE,delta=1
    37                           	psect	text25,global,reloc=2,class=CODE,delta=1
    38                           	psect	text26,global,reloc=2,class=CODE,delta=1
    39                           	psect	text27,global,reloc=2,class=CODE,delta=1
    40                           	psect	text28,global,reloc=2,class=CODE,delta=1
    41                           	psect	text29,global,reloc=2,class=CODE,delta=1
    42                           	psect	text30,global,reloc=2,class=CODE,delta=1
    43                           	psect	text31,global,reloc=2,class=CODE,delta=1
    44                           	psect	text32,global,reloc=2,class=CODE,delta=1
    45                           	psect	text33,global,reloc=2,class=CODE,delta=1
    46                           	psect	text34,global,reloc=2,class=CODE,delta=1
    47                           	psect	text35,global,reloc=2,class=CODE,delta=1
    48                           	psect	text36,global,reloc=2,class=CODE,delta=1
    49                           	psect	text37,global,reloc=2,class=CODE,delta=1
    50                           	psect	text38,global,reloc=2,class=CODE,delta=1
    51                           	psect	text39,global,reloc=2,class=CODE,delta=1
    52                           	psect	text40,global,reloc=2,class=CODE,delta=1
    53                           	psect	text41,global,reloc=2,class=CODE,delta=1
    54                           	psect	text42,global,reloc=2,class=CODE,delta=1
    55                           	psect	intsave_regs,global,class=BIGRAM,space=1,delta=1
    56                           	psect	rparam,global,class=COMRAM,space=1,delta=1
    57                           	dabs	1,0x408,4,_ep0Bi
    58                           	dabs	1,0x410,4,_ep1Bi
    59                           	dabs	1,0x414,8,_EP0OutEvenBuf
    60                           	dabs	1,0x404,4,_ep0BoOdd
    61                           	dabs	1,0x40C,4,_ep1Bo
    62                           	dabs	1,0x400,4,_ep0BoEven
    63                           	dabs	1,0x46C,64,_hid_report_in
    64                           	dabs	1,0x42C,64,_hid_report_out
    65                           	dabs	1,0x424,8,_CtrlTrfData
    66                           	dabs	1,0x41C,8,_EP0OutOddBuf
    67  0000                     
    68                           	psect	smallconst
    69  000800                     __psmallconst:
    70                           	opt stack 0
    71  000800  00                 	db	0
    72  000801                     _USB_SD_Ptr:
    73                           	opt stack 0
    74  000801  08B9               	dw	_sd000& (0+65535)
    75  000803  0807               	dw	_sd001& (0+65535)
    76  000805  0864               	dw	_sd002& (0+65535)
    77  000807                     __end_of_USB_SD_Ptr:
    78                           	opt stack 0
    79  0000                     _FlashSignatureWord_absconstaddr	set	8198
    80  000807                     _sd001:
    81                           	opt stack 0
    82  000807  34                 	db	52
    83  000808  03                 	db	3
    84  000809  004D               	dw	77
    85  00080B  0069               	dw	105
    86  00080D  0063               	dw	99
    87  00080F  0072               	dw	114
    88  000811  006F               	dw	111
    89  000813  0063               	dw	99
    90  000815  0068               	dw	104
    91  000817  0069               	dw	105
    92  000819  0070               	dw	112
    93  00081B  0020               	dw	32
    94  00081D  0054               	dw	84
    95  00081F  0065               	dw	101
    96  000821  0063               	dw	99
    97  000823  0068               	dw	104
    98  000825  006E               	dw	110
    99  000827  006F               	dw	111
   100  000829  006C               	dw	108
   101  00082B  006F               	dw	111
   102  00082D  0067               	dw	103
   103  00082F  0079               	dw	121
   104  000831  0020               	dw	32
   105  000833  0049               	dw	73
   106  000835  006E               	dw	110
   107  000837  0063               	dw	99
   108  000839  002E               	dw	46
   109  00083B                     __end_of_sd001:
   110                           	opt stack 0
   111  00083B                     _CFG01:
   112                           	opt stack 0
   113  00083B  09                 	db	9
   114  00083C  02                 	db	2
   115  00083D  29                 	db	41
   116  00083E  00                 	db	0
   117  00083F  01                 	db	1
   118  000840  01                 	db	1
   119  000841  00                 	db	0
   120  000842  80                 	db	128
   121  000843  32                 	db	50
   122  000844  09                 	db	9
   123  000845  04                 	db	4
   124  000846  00                 	db	0
   125  000847  00                 	db	0
   126  000848  02                 	db	2
   127  000849  03                 	db	3
   128  00084A  00                 	db	0
   129  00084B  00                 	db	0
   130  00084C  00                 	db	0
   131  00084D  09                 	db	9
   132  00084E  21                 	db	33
   133  00084F  11                 	db	17
   134  000850  01                 	db	1
   135  000851  00                 	db	0
   136  000852  01                 	db	1
   137  000853  22                 	db	34
   138  000854  1D                 	db	29
   139  000855  00                 	db	0
   140  000856  07                 	db	7
   141  000857  05                 	db	5
   142  000858  81                 	db	129
   143  000859  03                 	db	3
   144  00085A  40                 	db	64
   145  00085B  00                 	db	0
   146  00085C  01                 	db	1
   147  00085D  07                 	db	7
   148  00085E  05                 	db	5
   149  00085F  01                 	db	1
   150  000860  03                 	db	3
   151  000861  40                 	db	64
   152  000862  00                 	db	0
   153  000863  01                 	db	1
   154  000864                     __end_of_CFG01:
   155                           	opt stack 0
   156  000864                     _sd002:
   157                           	opt stack 0
   158  000864  26                 	db	38
   159  000865  03                 	db	3
   160  000866  0048               	dw	72
   161  000868  0049               	dw	73
   162  00086A  0044               	dw	68
   163  00086C  0020               	dw	32
   164  00086E  0055               	dw	85
   165  000870  0053               	dw	83
   166  000872  0042               	dw	66
   167  000874  0020               	dw	32
   168  000876  0042               	dw	66
   169  000878  006F               	dw	111
   170  00087A  006F               	dw	111
   171  00087C  0074               	dw	116
   172  00087E  006C               	dw	108
   173  000880  006F               	dw	111
   174  000882  0061               	dw	97
   175  000884  0064               	dw	100
   176  000886  0065               	dw	101
   177  000888  0072               	dw	114
   178  00088A                     __end_of_sd002:
   179                           	opt stack 0
   180  00088A                     _hid_rpt01:
   181                           	opt stack 0
   182  00088A  06                 	db	6
   183  00088B  00                 	db	0
   184  00088C  FF                 	db	255
   185  00088D  09                 	db	9
   186  00088E  01                 	db	1
   187  00088F  A1                 	db	161
   188  000890  01                 	db	1
   189  000891  19                 	db	25
   190  000892  01                 	db	1
   191  000893  29                 	db	41
   192  000894  40                 	db	64
   193  000895  15                 	db	21
   194  000896  00                 	db	0
   195  000897  26                 	db	38
   196  000898  FF                 	db	255
   197  000899  00                 	db	0
   198  00089A  75                 	db	117
   199  00089B  08                 	db	8
   200  00089C  95                 	db	149
   201  00089D  40                 	db	64
   202  00089E  81                 	db	129
   203  00089F  00                 	db	0
   204  0008A0  19                 	db	25
   205  0008A1  01                 	db	1
   206  0008A2  29                 	db	41
   207  0008A3  40                 	db	64
   208  0008A4  91                 	db	145
   209  0008A5  00                 	db	0
   210  0008A6  C0                 	db	192
   211  0008A7                     __end_of_hid_rpt01:
   212                           	opt stack 0
   213  0008A7                     _device_dsc:
   214                           	opt stack 0
   215  0008A7  12                 	db	18
   216  0008A8  01                 	db	1
   217  0008A9  0200               	dw	512
   218  0008AB  00                 	db	0
   219  0008AC  00                 	db	0
   220  0008AD  00                 	db	0
   221  0008AE  08                 	db	8
   222  0008AF  04D8               	dw	1240
   223  0008B1  003C               	dw	60
   224  0008B3  0101               	dw	257
   225  0008B5  01                 	db	1
   226  0008B6  02                 	db	2
   227  0008B7  00                 	db	0
   228  0008B8  01                 	db	1
   229  0008B9                     __end_of_device_dsc:
   230                           	opt stack 0
   231  0008B9                     _sd000:
   232                           	opt stack 0
   233  0008B9  04                 	db	4
   234  0008BA  03                 	db	3
   235  0008BB  0409               	dw	1033
   236  0008BD                     __end_of_sd000:
   237                           	opt stack 0
   238  0000                     _FlashSignatureWord_absconstaddr	set	8198
   239  0008BD  00                 	db	0	; dummy byte at the end
   240  0000                     
   241                           	psect	_FlashSignatureWord_const
   242  002006                     __p_FlashSignatureWord_const:
   243                           	opt stack 0
   244  002006                     _FlashSignatureWord:
   245                           	opt stack 0
   246  002006  600D               	dw	24589
   247  002008                     __end_of_FlashSignatureWord:
   248                           	opt stack 0
   249  0000                     _ADCON1	set	4033
   250  0000                     _EEADR	set	4009
   251  0000                     _EECON1	set	4006
   252  0000                     _EECON1bits	set	4006
   253  0000                     _EECON2	set	4007
   254  0000                     _EEDATA	set	4008
   255  0000                     _INTCON	set	4082
   256  0000                     _INTCONbits	set	4082
   257  0000                     _LATDbits	set	3980
   258  0000                     _OSCCON	set	4051
   259  0000                     _PIE2bits	set	4000
   260  0000                     _PIR2bits	set	4001
   261  0000                     _PORTBbits	set	3969
   262  0000                     _RCONbits	set	4048
   263  0000                     _STKPTR	set	4092
   264  0000                     _TABLAT	set	4085
   265  0000                     _TBLPTRH	set	4087
   266  0000                     _TBLPTRL	set	4086
   267  0000                     _TBLPTRU	set	4088
   268  0000                     _TRISBbits	set	3987
   269  0000                     _TRISDbits	set	3989
   270  0000                     _UADDR	set	3950
   271  0000                     _UCFG	set	3951
   272  0000                     _UCON	set	3949
   273  0000                     _UCONbits	set	3949
   274  0000                     _UEIE	set	3947
   275  0000                     _UEP0	set	3952
   276  0000                     _UEP1	set	3953
   277  0000                     _UEP2	set	3954
   278  0000                     _UEP3	set	3955
   279  0000                     _UEP4	set	3956
   280  0000                     _UEP5	set	3957
   281  0000                     _UEP6	set	3958
   282  0000                     _UEP7	set	3959
   283  0000                     _UIE	set	3945
   284  0000                     _UIEbits	set	3945
   285  0000                     _UIR	set	3944
   286  0000                     _UIRbits	set	3944
   287  0000                     _USTAT	set	3948
   288  0000                     _USTATbits	set	3948
   289                           
   290                           ; #config settings
   291  0000                     
   292                           	psect	cinit
   293  001C1A                     __pcinit:
   294                           	opt stack 0
   295  001C1A                     start_initialization:
   296                           	opt stack 0
   297  001C1A                     __initialization:
   298                           	opt stack 0
   299                           
   300                           ; Clear objects allocated to BANK1 (64 bytes)
   301  001C1A  EE01  F000         	lfsr	0,__pbssBANK1
   302  001C1E  0E40               	movlw	64
   303  001C20                     clear_0:
   304  001C20  6AEE               	clrf	postinc0,c
   305  001C22  06E8               	decf	wreg,f,c
   306  001C24  E1FD               	bnz	clear_0
   307                           
   308                           ; Clear objects allocated to BANK0 (130 bytes)
   309  001C26  EE00  F060         	lfsr	0,__pbssBANK0
   310  001C2A  0E82               	movlw	130
   311  001C2C                     clear_1:
   312  001C2C  6AEE               	clrf	postinc0,c
   313  001C2E  06E8               	decf	wreg,f,c
   314  001C30  E1FD               	bnz	clear_1
   315                           
   316                           ; Clear objects allocated to COMRAM (73 bytes)
   317  001C32  EE00  F001         	lfsr	0,__pbssCOMRAM
   318  001C36  0E49               	movlw	73
   319  001C38                     clear_2:
   320  001C38  6AEE               	clrf	postinc0,c
   321  001C3A  06E8               	decf	wreg,f,c
   322  001C3C  E1FD               	bnz	clear_2
   323  001C3E                     end_of_initialization:
   324                           	opt stack 0
   325  001C3E                     __end_of__initialization:
   326                           	opt stack 0
   327  001C3E  0E00               	movlw	low (__Lmediumconst shr (0+16))
   328  001C40  6EF8               	movwf	tblptru,c
   329  001C42  0100               	movlb	0
   330  001C44  EF41  F00D         	goto	_main	;jump to C main() function
   331                           tblptru	equ	0xFF8
   332                           postinc0	equ	0xFEE
   333                           wreg	equ	0xFE8
   334                           
   335                           	psect	bssCOMRAM
   336  000001                     __pbssCOMRAM:
   337                           	opt stack 0
   338  000001                     _ProgrammedPointer:
   339                           	opt stack 0
   340  000001                     	ds	4
   341  000005                     _TempBDT:
   342                           	opt stack 0
   343  000005                     	ds	4
   344  000009                     ProcessIO@pROM:
   345                           	opt stack 0
   346  000009                     	ds	3
   347  00000C                     SignFlash@pROM:
   348                           	opt stack 0
   349  00000C                     	ds	3
   350  00000F                     WriteFlashBlock@pROM:
   351                           	opt stack 0
   352  00000F                     	ds	3
   353  000012                     _pDst:
   354                           	opt stack 0
   355  000012                     	ds	3
   356  000015                     _pSrc:
   357                           	opt stack 0
   358  000015                     	ds	3
   359  000018                     BlinkUSBStatus@led_count:
   360                           	opt stack 0
   361  000018                     	ds	2
   362  00001A                     LoadBDTandSetUOWN@pBDTEntry:
   363                           	opt stack 0
   364  00001A                     	ds	2
   365  00001C                     USBDeviceTasks@pBDTEntry:
   366                           	opt stack 0
   367  00001C                     	ds	2
   368  00001E                     _Counter:
   369                           	opt stack 0
   370  00001E                     	ds	2
   371  000020                     _ErasePageTracker:
   372                           	opt stack 0
   373  000020                     	ds	2
   374  000022                     _uint_delay_counter:
   375                           	opt stack 0
   376  000022                     	ds	2
   377  000024                     ProcessIO@i:
   378                           	opt stack 0
   379  000024                     	ds	1
   380  000025                     SignFlash@i:
   381                           	opt stack 0
   382  000025                     	ds	1
   383  000026                     USBCtrlTrfTxService@bytes_to_send:
   384                           	opt stack 0
   385  000026                     	ds	1
   386  000027                     USBDeviceTasks@i:
   387                           	opt stack 0
   388  000027                     	ds	1
   389  000028                     USBStdSetCfgHandler@i:
   390                           	opt stack 0
   391  000028                     	ds	1
   392  000029                     USBSuspend@UIESave:
   393                           	opt stack 0
   394  000029                     	ds	1
   395  00002A                     WriteConfigBits@i:
   396                           	opt stack 0
   397  00002A                     	ds	1
   398  00002B                     WriteEEPROM@i:
   399                           	opt stack 0
   400  00002B                     	ds	1
   401  00002C                     WriteFlashBlock@BytesTakenFromBuffer:
   402                           	opt stack 0
   403  00002C                     	ds	1
   404  00002D                     WriteFlashBlock@CorrectionFactor:
   405                           	opt stack 0
   406  00002D                     	ds	1
   407  00002E                     WriteFlashBlock@i:
   408                           	opt stack 0
   409  00002E                     	ds	1
   410  00002F                     _BootState:
   411                           	opt stack 0
   412  00002F                     	ds	1
   413  000030                     _BufferedDataIndex:
   414                           	opt stack 0
   415  000030                     	ds	1
   416  000031                     _ConfigsLockValue:
   417                           	opt stack 0
   418  000031                     	ds	1
   419  000032                     _DeviceIsSoftDetached:
   420                           	opt stack 0
   421  000032                     	ds	1
   422  000033                     _EP0OutOddNeedsArmingNext:
   423                           	opt stack 0
   424  000033                     	ds	1
   425  000034                     _USTATSave:
   426                           	opt stack 0
   427  000034                     	ds	1
   428  000035                     _bTRNIFCount:
   429                           	opt stack 0
   430  000035                     	ds	1
   431  000036                     _ctrl_trf_session_owner:
   432                           	opt stack 0
   433  000036                     	ds	1
   434  000037                     _ctrl_trf_state:
   435                           	opt stack 0
   436  000037                     	ds	1
   437  000038                     _hid_rpt_rx_len:
   438                           	opt stack 0
   439  000038                     	ds	1
   440  000039                     _short_pkt_status:
   441                           	opt stack 0
   442  000039                     	ds	1
   443  00003A                     _usb_device_state:
   444                           	opt stack 0
   445  00003A                     	ds	1
   446  00003B                     _usb_stat:
   447                           	opt stack 0
   448  00003B                     	ds	1
   449  00003C                     _SetupPkt:
   450                           	opt stack 0
   451  00003C                     	ds	8
   452  000044                     _wCount:
   453                           	opt stack 0
   454  000044                     	ds	2
   455  000046                     _active_protocol:
   456                           	opt stack 0
   457  000046                     	ds	1
   458  000047                     _idle_rate:
   459                           	opt stack 0
   460  000047                     	ds	1
   461  000048                     _usb_active_cfg:
   462                           	opt stack 0
   463  000048                     	ds	1
   464  000049                     _usb_alt_intf:
   465                           	opt stack 0
   466  000049                     	ds	1
   467                           tblptru	equ	0xFF8
   468                           postinc0	equ	0xFEE
   469                           wreg	equ	0xFE8
   470                           
   471                           	psect	bssBANK0
   472  000060                     __pbssBANK0:
   473                           	opt stack 0
   474  000060                     _PacketFromPC:
   475                           	opt stack 0
   476  000060                     	ds	65
   477  0000A1                     _PacketToPC:
   478                           	opt stack 0
   479  0000A1                     	ds	65
   480                           tblptru	equ	0xFF8
   481                           postinc0	equ	0xFEE
   482                           wreg	equ	0xFE8
   483                           
   484                           	psect	bssBANK1
   485  000100                     __pbssBANK1:
   486                           	opt stack 0
   487  000100                     _ProgrammingBuffer:
   488                           	opt stack 0
   489  000100                     	ds	64
   490                           tblptru	equ	0xFF8
   491                           postinc0	equ	0xFEE
   492                           wreg	equ	0xFE8
   493                           
   494                           	psect	cstackCOMRAM
   495  00004A                     __pcstackCOMRAM:
   496                           	opt stack 0
   497  00004A                     ??_BlinkUSBStatus:
   498  00004A                     ??_HIDInitEP:
   499  00004A                     ??_USBCheckHIDRequest:
   500  00004A                     ??_LoadBDTandSetUOWN:
   501  00004A                     ??_USBCtrlTrfTxService:
   502  00004A                     ??_USBStdGetDscHandler:
   503  00004A                     ??_USBStdGetStatusHandler:
   504  00004A                     ??_USBStdFeatureReqHandler:
   505  00004A                     ??_UserInit:
   506  00004A                     UnlockAndActivate@UnlockKey:
   507                           	opt stack 0
   508  00004A                     DelayRoutine@DelayAmount:
   509                           	opt stack 0
   510  00004A                     HIDTxReport@buffer:
   511                           	opt stack 0
   512  00004A                     HIDRxReport@buffer:
   513                           	opt stack 0
   514                           
   515                           ; 2 bytes @ 0x0
   516  00004A                     	ds	1
   517  00004B                     ??_WriteConfigBits:
   518  00004B                     ??_WriteEEPROM:
   519  00004B                     ??_WriteFlashBlock:
   520  00004B                     ??_SignFlash:
   521  00004B                     ??_USBCtrlTrfInHandler:
   522  00004B                     USBCBInitEP@ConfigurationIndex:
   523                           	opt stack 0
   524  00004B                     LoadBDTandSetUOWN@BDTIndexToLoad:
   525                           	opt stack 0
   526                           
   527                           ; 1 bytes @ 0x1
   528  00004B                     	ds	1
   529  00004C                     ??_USBDisableWithLongDelay:
   530  00004C                     ??_USBProtocolResetHandler:
   531  00004C                     ??_USBCtrlEPServiceComplete:
   532  00004C                     ??_USBStdSetCfgHandler:
   533  00004C                     HIDTxReport@len:
   534                           	opt stack 0
   535  00004C                     HIDRxReport@len:
   536                           	opt stack 0
   537                           
   538                           ; 1 bytes @ 0x2
   539  00004C                     	ds	1
   540  00004D                     ??_HIDRxReport:
   541  00004D                     ??_HIDTxReport:
   542  00004D                     ??_USBSoftAttach:
   543                           
   544                           ; 0 bytes @ 0x3
   545  00004D                     	ds	1
   546  00004E                     ??_USBDeviceInit:
   547  00004E                     ??_USBCheckStdRequest:
   548  00004E                     HIDTxReport@i:
   549                           	opt stack 0
   550                           
   551                           ; 1 bytes @ 0x4
   552  00004E                     	ds	1
   553  00004F                     ??_USBCtrlTrfSetupHandler:
   554                           
   555                           ; 0 bytes @ 0x5
   556  00004F                     	ds	1
   557  000050                     ??_USBDeviceTasks:
   558                           
   559                           ; 0 bytes @ 0x6
   560  000050                     	ds	3
   561  000053                     ??_ProcessIO:
   562                           
   563                           ; 0 bytes @ 0x9
   564  000053                     	ds	4
   565  000057                     ??_main:
   566                           
   567                           ; 0 bytes @ 0xD
   568  000057                     	ds	2
   569                           tblptru	equ	0xFF8
   570                           postinc0	equ	0xFEE
   571                           wreg	equ	0xFE8
   572                           
   573 ;;
   574 ;;Main: autosize = 0, tempsize = 2, incstack = 0, save=0
   575 ;;
   576 ;; *************** function _main *****************
   577 ;; Defined at:
   578 ;;		line 423 in file "../src/main.c"
   579 ;; Parameters:    Size  Location     Type
   580 ;;		None
   581 ;; Auto vars:     Size  Location     Type
   582 ;;		None
   583 ;; Return value:  Size  Location     Type
   584 ;;		None               void
   585 ;; Registers used:
   586 ;;		wreg, fsr1l, fsr1h, fsr2l, fsr2h, status,2, status,0, tblptrl, tblptrh, tblptru, prodl, prodh, cstack
   587 ;; Tracked objects:
   588 ;;		On entry : 0/0
   589 ;;		On exit  : 0/0
   590 ;;		Unchanged: 0/0
   591 ;; Data sizes:     COMRAM   BANK0   BANK1   BANK2   BANK3  BANK4h   BANK5   BANK6   BANK7
   592 ;;      Params:         0       0       0       0       0       0       0       0       0
   593 ;;      Locals:         0       0       0       0       0       0       0       0       0
   594 ;;      Temps:          2       0       0       0       0       0       0       0       0
   595 ;;      Totals:         2       0       0       0       0       0       0       0       0
   596 ;;Total ram usage:        2 bytes
   597 ;; Hardware stack levels required when called:    8
   598 ;; This function calls:
   599 ;;		_BootMain
   600 ;; This function is called by:
   601 ;;		Startup code after reset
   602 ;; This function uses a non-reentrant model
   603 ;;
   604                           
   605                           	psect	text0
   606  001A82                     __ptext0:
   607                           	opt stack 0
   608  001A82                     _main:
   609                           	opt stack 23
   610                           
   611                           ;main.c: 431: {ADCON1 = 0x0F; TRISBbits.TRISB4 = 1;};
   612                           
   613                           ;incstack = 0
   614  001A82  0E0F               	movlw	15
   615  001A84  6EC1               	movwf	4033,c	;volatile
   616  001A86  8893               	bsf	3987,4,c	;volatile
   617                           
   618                           ;main.c: 435: if(PORTBbits.RB4 == 1)
   619  001A88  A881               	btfss	3969,4,c	;volatile
   620  001A8A  D003               	goto	l3477
   621                           
   622                           ;main.c: 436: {
   623                           ;main.c: 440: {ADCON1 = 0x07;};
   624  001A8C  0E07               	movlw	7
   625  001A8E  6EC1               	movwf	4033,c	;volatile
   626                           
   627                           ;main.c: 444: goto DoFlashSignatureCheck;
   628  001A90  D002               	goto	l3479
   629  001A92                     l3477:
   630                           
   631                           ;main.c: 446: else
   632                           ;main.c: 447: {
   633                           ;main.c: 449: BootMain();
   634  001A92  EC18  F000         	call	_BootMain	;wreg free
   635  001A96                     l3479:
   636                           
   637                           ;main.c: 455: if(*(const unsigned int*)0x2006 == 0x600D)
   638  001A96  0E06               	movlw	6
   639  001A98  6EF6               	movwf	tblptrl,c
   640  001A9A  0E20               	movlw	32
   641  001A9C  6EF7               	movwf	tblptrh,c
   642  001A9E  0009               	tblrd		*+
   643  001AA0  CFF5 F057          	movff	tablat,??_main
   644  001AA4  0009               	tblrd		*+
   645  001AA6  CFF5 F058          	movff	tablat,??_main+1
   646  001AAA  5058               	movf	??_main+1,w,c
   647  001AAC  0A60               	xorlw	96
   648  001AAE  0E0D               	movlw	13
   649  001AB0  B4D8               	btfsc	status,2,c
   650  001AB2  1857               	xorwf	??_main,w,c
   651  001AB4  A4D8               	btfss	status,2,c
   652  001AB6  D010               	goto	l3485
   653                           
   654                           ;main.c: 456: {
   655                           ;main.c: 462: if(*(const unsigned int*)0x2000 != 0xFFFF)
   656  001AB8  0E00               	movlw	0
   657  001ABA  6EF6               	movwf	tblptrl,c
   658  001ABC  0E20               	movlw	32
   659  001ABE  6EF7               	movwf	tblptrh,c
   660  001AC0  0009               	tblrd		*+
   661  001AC2  CFF5 F057          	movff	tablat,??_main
   662  001AC6  0009               	tblrd		*+
   663  001AC8  CFF5 F058          	movff	tablat,??_main+1
   664  001ACC  2857               	incf	??_main,w,c
   665  001ACE  B4D8               	btfsc	status,2,c
   666  001AD0  2858               	incf	??_main+1,w,c
   667  001AD2  A4D8               	btfss	status,2,c
   668  001AD4  EF00 F010          	goto	8192	;# 
   669  001AD8                     l3485:
   670                           
   671                           ;main.c: 472: }
   672                           ;main.c: 473: }
   673                           ;main.c: 479: BootMain();
   674  001AD8  EC18  F000         	call	_BootMain	;wreg free
   675  001ADC  EF00  F000         	goto	start
   676  001AE0                     __end_of_main:
   677                           	opt stack 0
   678                           tblptru	equ	0xFF8
   679                           tblptrh	equ	0xFF7
   680                           tblptrl	equ	0xFF6
   681                           tablat	equ	0xFF5
   682                           postinc0	equ	0xFEE
   683                           wreg	equ	0xFE8
   684                           status	equ	0xFD8
   685                           
   686 ;; *************** function _BootMain *****************
   687 ;; Defined at:
   688 ;;		line 508 in file "../src/main.c"
   689 ;; Parameters:    Size  Location     Type
   690 ;;		None
   691 ;; Auto vars:     Size  Location     Type
   692 ;;		None
   693 ;; Return value:  Size  Location     Type
   694 ;;		None               void
   695 ;; Registers used:
   696 ;;		wreg, fsr1l, fsr1h, fsr2l, fsr2h, status,2, status,0, tblptrl, tblptrh, tblptru, prodl, prodh, cstack
   697 ;; Tracked objects:
   698 ;;		On entry : 0/0
   699 ;;		On exit  : 0/0
   700 ;;		Unchanged: 0/0
   701 ;; Data sizes:     COMRAM   BANK0   BANK1   BANK2   BANK3  BANK4h   BANK5   BANK6   BANK7
   702 ;;      Params:         0       0       0       0       0       0       0       0       0
   703 ;;      Locals:         0       0       0       0       0       0       0       0       0
   704 ;;      Temps:          0       0       0       0       0       0       0       0       0
   705 ;;      Totals:         0       0       0       0       0       0       0       0       0
   706 ;;Total ram usage:        0 bytes
   707 ;; Hardware stack levels used:    1
   708 ;; Hardware stack levels required when called:    7
   709 ;; This function calls:
   710 ;;		_BlinkUSBStatus
   711 ;;		_InitializeSystem
   712 ;;		_LowVoltageCheck
   713 ;;		_ProcessIO
   714 ;;		_USBDeviceTasks
   715 ;; This function is called by:
   716 ;;		_main
   717 ;; This function uses a non-reentrant model
   718 ;;
   719                           
   720                           	psect	_BootMain_text
   721  000030                     __p_BootMain_text:
   722                           	opt stack 0
   723  000030                     _BootMain:
   724                           	opt stack 0
   725                           
   726                           ;incstack = 0
   727  0000                     
   728                           ;main.c: 525: INTCON = 0x00;
   729  000030  0E00               	movlw	0
   730  000032  6EF2               	movwf	intcon,c	;volatile
   731                           
   732                           ;main.c: 539: STKPTR = 0x00;
   733  000034  0E00               	movlw	0
   734  000036  6EFC               	movwf	stkptr,c	;volatile
   735                           
   736                           ;main.c: 548: InitializeSystem();
   737  000038  ECB4  F00E         	call	_InitializeSystem	;wreg free
   738  00003C                     l247:
   739  00003C  0004               	clrwdt		;# 
   740                           
   741                           ;main.c: 558: USBDeviceTasks();
   742  00003E  ECCD  F008         	call	_USBDeviceTasks	;wreg free
   743                           
   744                           ;main.c: 560: BlinkUSBStatus();
   745  000042  ECF0  F00D         	call	_BlinkUSBStatus	;wreg free
   746                           
   747                           ;main.c: 562: LowVoltageCheck();
   748  000046  ECC7  F00E         	call	_LowVoltageCheck	;wreg free
   749                           
   750                           ;main.c: 566: ProcessIO();
   751  00004A  EC5F  F004         	call	_ProcessIO	;wreg free
   752  00004E  D7F6               	goto	l247
   753  000050                     __end_of_BootMain:
   754                           	opt stack 0
   755                           stkptr	equ	0xFFC
   756                           tblptru	equ	0xFF8
   757                           tblptrh	equ	0xFF7
   758                           tblptrl	equ	0xFF6
   759                           tablat	equ	0xFF5
   760                           intcon	equ	0xFF2
   761                           postinc0	equ	0xFEE
   762                           wreg	equ	0xFE8
   763                           status	equ	0xFD8
   764                           
   765 ;; *************** function _ProcessIO *****************
   766 ;; Defined at:
   767 ;;		line 359 in file "../src/BootPIC18NonJ.c"
   768 ;; Parameters:    Size  Location     Type
   769 ;;		None
   770 ;; Auto vars:     Size  Location     Type
   771 ;;		None
   772 ;; Return value:  Size  Location     Type
   773 ;;		None               void
   774 ;; Registers used:
   775 ;;		wreg, fsr1l, fsr1h, fsr2l, fsr2h, status,2, status,0, tblptrl, tblptrh, tblptru, prodl, prodh, cstack
   776 ;; Tracked objects:
   777 ;;		On entry : 0/0
   778 ;;		On exit  : 0/0
   779 ;;		Unchanged: 0/0
   780 ;; Data sizes:     COMRAM   BANK0   BANK1   BANK2   BANK3  BANK4h   BANK5   BANK6   BANK7
   781 ;;      Params:         0       0       0       0       0       0       0       0       0
   782 ;;      Locals:         0       0       0       0       0       0       0       0       0
   783 ;;      Temps:          4       0       0       0       0       0       0       0       0
   784 ;;      Totals:         4       0       0       0       0       0       0       0       0
   785 ;;Total ram usage:        4 bytes
   786 ;; Hardware stack levels used:    1
   787 ;; Hardware stack levels required when called:    6
   788 ;; This function calls:
   789 ;;		_ClearWatchdog
   790 ;;		_HIDRxReport
   791 ;;		_HIDTxReport
   792 ;;		_ResetDeviceCleanly
   793 ;;		_SignFlash
   794 ;;		_USBDeviceTasks
   795 ;;		_UnlockAndActivate
   796 ;;		_WriteConfigBits
   797 ;;		_WriteEEPROM
   798 ;;		_WriteFlashBlock
   799 ;; This function is called by:
   800 ;;		_BootMain
   801 ;; This function uses a non-reentrant model
   802 ;;
   803                           
   804                           	psect	text2
   805  0008BE                     __ptext2:
   806                           	opt stack 0
   807  0008BE                     _ProcessIO:
   808                           	opt stack 23
   809                           
   810                           ;BootPIC18NonJ.c: 361: static unsigned char i;
   811                           ;BootPIC18NonJ.c: 362: static const uint8_t* pROM;
   812                           ;BootPIC18NonJ.c: 367: if((usb_device_state != 6) || (UCONbits.SUSPND == 1))
   813                           
   814                           ;incstack = 0
   815  0008BE  503A               	movf	_usb_device_state,w,c
   816  0008C0  0A06               	xorlw	6
   817  0008C2  B4D8               	btfsc	status,2,c
   818  0008C4  B26D               	btfsc	3949,1,c	;volatile
   819  0008C6  D2DD               	goto	l85
   820                           
   821                           ;BootPIC18NonJ.c: 372: }
   822                           ;BootPIC18NonJ.c: 377: if(BootState == 0x00)
   823                           
   824                           ;BootPIC18NonJ.c: 368: {
   825                           ;BootPIC18NonJ.c: 371: return;
   826  0008C8  662F               	tstfsz	_BootState,c
   827  0008CA  D2BC               	goto	l3445
   828                           
   829                           ;BootPIC18NonJ.c: 378: {
   830                           ;BootPIC18NonJ.c: 381: if(!ep1Bo.Stat.UOWN)
   831  0008CC  0104               	movlb	4	; () banked
   832  0008CE  BF0C               	btfsc	12,7,b	;volatile
   833  0008D0  D2D8               	goto	l85
   834                           
   835                           ; BSR set to: 4
   836                           ;BootPIC18NonJ.c: 382: {
   837                           ;BootPIC18NonJ.c: 385: HIDRxReport((char *)&PacketFromPC, 0x40);
   838  0008D2  0100               	movlb	0	; () banked
   839  0008D4  0E00               	movlw	high _PacketFromPC
   840  0008D6  6E4B               	movwf	HIDRxReport@buffer+1,c
   841  0008D8  0100               	movlb	0	; () banked
   842  0008DA  0E60               	movlw	low _PacketFromPC
   843  0008DC  6E4A               	movwf	HIDRxReport@buffer,c
   844  0008DE  6E53               	movwf	??_ProcessIO& (0+255),c
   845  0008E0  0E40               	movlw	64
   846  0008E2  6E4C               	movwf	HIDRxReport@len,c
   847  0008E4  5053               	movf	??_ProcessIO& (0+255),w,c
   848  0008E6  EC99  F00B         	call	_HIDRxReport	;wreg free
   849                           
   850                           ;BootPIC18NonJ.c: 386: BootState = 0x01;
   851  0008EA  6E53               	movwf	??_ProcessIO& (0+255),c
   852  0008EC  0E01               	movlw	1
   853  0008EE  6E2F               	movwf	_BootState,c
   854  0008F0  5053               	movf	??_ProcessIO& (0+255),w,c
   855                           
   856                           ;BootPIC18NonJ.c: 389: for(i = 0; i < 0x40; i++)
   857  0008F2  6E53               	movwf	??_ProcessIO& (0+255),c
   858  0008F4  0E00               	movlw	0
   859  0008F6  6E24               	movwf	ProcessIO@i,c
   860  0008F8  5053               	movf	??_ProcessIO& (0+255),w,c
   861  0008FA  D00D               	goto	L9
   862  0008FC                     l3233:
   863                           
   864                           ;BootPIC18NonJ.c: 390: PacketToPC.Contents[i] = 0;
   865  0008FC  5024               	movf	ProcessIO@i,w,c
   866  0008FE  0D01               	mullw	1
   867  000900  0100               	movlb	0	; () banked
   868  000902  0EA1               	movlw	low _PacketToPC
   869  000904  24F3               	addwf	prodl,w,c
   870  000906  6ED9               	movwf	fsr2l,c
   871  000908  0100               	movlb	0	; () banked
   872  00090A  0E00               	movlw	high _PacketToPC
   873  00090C  20F4               	addwfc	prodh,w,c
   874  00090E  6EDA               	movwf	fsr2h,c
   875  000910  0E00               	movlw	0
   876  000912  6EDF               	movwf	indf2,c
   877                           
   878                           ; BSR set to: 0
   879  000914  2A24               	incf	ProcessIO@i,f,c
   880  000916                     L9:
   881                           
   882                           ; BSR set to: 0
   883  000916  0E3F               	movlw	63
   884  000918  6424               	cpfsgt	ProcessIO@i,c
   885  00091A  D7F0               	goto	l3233
   886  00091C  D2B2               	goto	l85
   887  00091E                     l92:
   888                           
   889                           ; BSR set to: 0
   890                           ;BootPIC18NonJ.c: 402: if(!ep1Bi.Stat.UOWN)
   891  00091E  0104               	movlb	4	; () banked
   892  000920  BF10               	btfsc	16,7,b	;volatile
   893  000922  D2AF               	goto	l85
   894                           
   895                           ; BSR set to: 4
   896                           ;BootPIC18NonJ.c: 403: {
   897                           ;BootPIC18NonJ.c: 405: PacketToPC.Command = 0x02;
   898  000924  6E53               	movwf	??_ProcessIO& (0+255),c
   899  000926  0E02               	movlw	2
   900  000928  0100               	movlb	0	; () banked
   901  00092A  0100               	movlb	0	; () banked
   902  00092C  6FA1               	movwf	_PacketToPC& (0+255),b
   903  00092E  5053               	movf	??_ProcessIO& (0+255),w,c
   904                           
   905                           ;BootPIC18NonJ.c: 406: PacketToPC.PacketDataFieldSize = 0x3A;
   906  000930  6E53               	movwf	??_ProcessIO& (0+255),c
   907  000932  0E3A               	movlw	58
   908  000934  0100               	movlb	0	; () banked
   909  000936  0100               	movlb	0	; () banked
   910  000938  6FA2               	movwf	(_PacketToPC+1)& (0+255),b
   911  00093A  5053               	movf	??_ProcessIO& (0+255),w,c
   912                           
   913                           ;BootPIC18NonJ.c: 407: PacketToPC.BytesPerAddress = 0x01;
   914  00093C  6E53               	movwf	??_ProcessIO& (0+255),c
   915  00093E  0E01               	movlw	1
   916  000940  0100               	movlb	0	; () banked
   917  000942  0100               	movlb	0	; () banked
   918  000944  6FA3               	movwf	(_PacketToPC+2)& (0+255),b
   919  000946  5053               	movf	??_ProcessIO& (0+255),w,c
   920                           
   921                           ;BootPIC18NonJ.c: 408: PacketToPC.Type1 = 0x01;
   922  000948  6E53               	movwf	??_ProcessIO& (0+255),c
   923  00094A  0E01               	movlw	1
   924  00094C  0100               	movlb	0	; () banked
   925  00094E  0100               	movlb	0	; () banked
   926  000950  6FA4               	movwf	(_PacketToPC+3)& (0+255),b
   927  000952  5053               	movf	??_ProcessIO& (0+255),w,c
   928                           
   929                           ; BSR set to: 0
   930                           ;BootPIC18NonJ.c: 409: PacketToPC.Address1 = (unsigned long)0x2000;
   931  000954  0E00               	movlw	0
   932  000956  0100               	movlb	0	; () banked
   933  000958  0100               	movlb	0	; () banked
   934  00095A  6FA5               	movwf	(_PacketToPC+4)& (0+255),b
   935  00095C  0E20               	movlw	32
   936  00095E  0100               	movlb	0	; () banked
   937  000960  6FA6               	movwf	(_PacketToPC+5)& (0+255),b
   938  000962  0E00               	movlw	0
   939  000964  0100               	movlb	0	; () banked
   940  000966  6FA7               	movwf	(_PacketToPC+6)& (0+255),b
   941  000968  0E00               	movlw	0
   942  00096A  0100               	movlb	0	; () banked
   943  00096C  6FA8               	movwf	(_PacketToPC+7)& (0+255),b
   944                           
   945                           ; BSR set to: 0
   946                           ;BootPIC18NonJ.c: 410: PacketToPC.Length1 = (unsigned long)(0x008000 - 0x2000);
   947  00096E  0E00               	movlw	0
   948  000970  0100               	movlb	0	; () banked
   949  000972  0100               	movlb	0	; () banked
   950  000974  6FA9               	movwf	(_PacketToPC+8)& (0+255),b
   951  000976  0E60               	movlw	96
   952  000978  0100               	movlb	0	; () banked
   953  00097A  6FAA               	movwf	(_PacketToPC+9)& (0+255),b
   954  00097C  0E00               	movlw	0
   955  00097E  0100               	movlb	0	; () banked
   956  000980  6FAB               	movwf	(_PacketToPC+10)& (0+255),b
   957  000982  0E00               	movlw	0
   958  000984  0100               	movlb	0	; () banked
   959  000986  6FAC               	movwf	(_PacketToPC+11)& (0+255),b
   960                           
   961                           ;BootPIC18NonJ.c: 411: PacketToPC.Type2 = 0x03;
   962  000988  6E53               	movwf	??_ProcessIO& (0+255),c
   963  00098A  0E03               	movlw	3
   964  00098C  0100               	movlb	0	; () banked
   965  00098E  0100               	movlb	0	; () banked
   966  000990  6FAD               	movwf	(_PacketToPC+12)& (0+255),b
   967  000992  5053               	movf	??_ProcessIO& (0+255),w,c
   968                           
   969                           ; BSR set to: 0
   970                           ;BootPIC18NonJ.c: 412: PacketToPC.Address2 = (unsigned long)0x300000;
   971  000994  0E00               	movlw	0
   972  000996  0100               	movlb	0	; () banked
   973  000998  0100               	movlb	0	; () banked
   974  00099A  6FAE               	movwf	(_PacketToPC+13)& (0+255),b
   975  00099C  0E00               	movlw	0
   976  00099E  0100               	movlb	0	; () banked
   977  0009A0  6FAF               	movwf	(_PacketToPC+14)& (0+255),b
   978  0009A2  0E30               	movlw	48
   979  0009A4  0100               	movlb	0	; () banked
   980  0009A6  6FB0               	movwf	(_PacketToPC+15)& (0+255),b
   981  0009A8  0E00               	movlw	0
   982  0009AA  0100               	movlb	0	; () banked
   983  0009AC  6FB1               	movwf	(_PacketToPC+16)& (0+255),b
   984                           
   985                           ; BSR set to: 0
   986                           ;BootPIC18NonJ.c: 413: PacketToPC.Length2 = (unsigned long)14;
   987  0009AE  0E0E               	movlw	14
   988  0009B0  0100               	movlb	0	; () banked
   989  0009B2  0100               	movlb	0	; () banked
   990  0009B4  6FB2               	movwf	(_PacketToPC+17)& (0+255),b
   991  0009B6  0E00               	movlw	0
   992  0009B8  0100               	movlb	0	; () banked
   993  0009BA  6FB3               	movwf	(_PacketToPC+18)& (0+255),b
   994  0009BC  0E00               	movlw	0
   995  0009BE  0100               	movlb	0	; () banked
   996  0009C0  6FB4               	movwf	(_PacketToPC+19)& (0+255),b
   997  0009C2  0E00               	movlw	0
   998  0009C4  0100               	movlb	0	; () banked
   999  0009C6  6FB5               	movwf	(_PacketToPC+20)& (0+255),b
  1000                           
  1001                           ;BootPIC18NonJ.c: 414: PacketToPC.Type3 = 0x04;
  1002  0009C8  6E53               	movwf	??_ProcessIO& (0+255),c
  1003  0009CA  0E04               	movlw	4
  1004  0009CC  0100               	movlb	0	; () banked
  1005  0009CE  0100               	movlb	0	; () banked
  1006  0009D0  6FB6               	movwf	(_PacketToPC+21)& (0+255),b
  1007  0009D2  5053               	movf	??_ProcessIO& (0+255),w,c
  1008                           
  1009                           ; BSR set to: 0
  1010                           ;BootPIC18NonJ.c: 415: PacketToPC.Address3 = (unsigned long)0x200000;
  1011  0009D4  0E00               	movlw	0
  1012  0009D6  0100               	movlb	0	; () banked
  1013  0009D8  0100               	movlb	0	; () banked
  1014  0009DA  6FB7               	movwf	(_PacketToPC+22)& (0+255),b
  1015  0009DC  0E00               	movlw	0
  1016  0009DE  0100               	movlb	0	; () banked
  1017  0009E0  6FB8               	movwf	(_PacketToPC+23)& (0+255),b
  1018  0009E2  0E20               	movlw	32
  1019  0009E4  0100               	movlb	0	; () banked
  1020  0009E6  6FB9               	movwf	(_PacketToPC+24)& (0+255),b
  1021  0009E8  0E00               	movlw	0
  1022  0009EA  0100               	movlb	0	; () banked
  1023  0009EC  6FBA               	movwf	(_PacketToPC+25)& (0+255),b
  1024                           
  1025                           ; BSR set to: 0
  1026                           ;BootPIC18NonJ.c: 416: PacketToPC.Length3 = (unsigned long)(8);
  1027  0009EE  0E08               	movlw	8
  1028  0009F0  0100               	movlb	0	; () banked
  1029  0009F2  0100               	movlb	0	; () banked
  1030  0009F4  6FBB               	movwf	(_PacketToPC+26)& (0+255),b
  1031  0009F6  0E00               	movlw	0
  1032  0009F8  0100               	movlb	0	; () banked
  1033  0009FA  6FBC               	movwf	(_PacketToPC+27)& (0+255),b
  1034  0009FC  0E00               	movlw	0
  1035  0009FE  0100               	movlb	0	; () banked
  1036  000A00  6FBD               	movwf	(_PacketToPC+28)& (0+255),b
  1037  000A02  0E00               	movlw	0
  1038  000A04  0100               	movlb	0	; () banked
  1039  000A06  6FBE               	movwf	(_PacketToPC+29)& (0+255),b
  1040                           
  1041                           ; BSR set to: 0
  1042                           ;BootPIC18NonJ.c: 417: PacketToPC.Type4 = 0xFF;
  1043  000A08  0100               	movlb	0	; () banked
  1044  000A0A  0100               	movlb	0	; () banked
  1045  000A0C  69BF               	setf	(_PacketToPC+30)& (0+255),b
  1046                           
  1047                           ;BootPIC18NonJ.c: 419: PacketToPC.Type4 = 0x02;
  1048  000A0E  6E53               	movwf	??_ProcessIO& (0+255),c
  1049  000A10  0E02               	movlw	2
  1050  000A12  0100               	movlb	0	; () banked
  1051  000A14  0100               	movlb	0	; () banked
  1052  000A16  6FBF               	movwf	(_PacketToPC+30)& (0+255),b
  1053  000A18  5053               	movf	??_ProcessIO& (0+255),w,c
  1054                           
  1055                           ; BSR set to: 0
  1056                           ;BootPIC18NonJ.c: 420: PacketToPC.Address4 = (unsigned long)0xF00000;
  1057  000A1A  0E00               	movlw	0
  1058  000A1C  0100               	movlb	0	; () banked
  1059  000A1E  0100               	movlb	0	; () banked
  1060  000A20  6FC0               	movwf	(_PacketToPC+31)& (0+255),b
  1061  000A22  0E00               	movlw	0
  1062  000A24  0100               	movlb	0	; () banked
  1063  000A26  6FC1               	movwf	(_PacketToPC+32)& (0+255),b
  1064  000A28  0EF0               	movlw	240
  1065  000A2A  0100               	movlb	0	; () banked
  1066  000A2C  6FC2               	movwf	(_PacketToPC+33)& (0+255),b
  1067  000A2E  0E00               	movlw	0
  1068  000A30  0100               	movlb	0	; () banked
  1069  000A32  6FC3               	movwf	(_PacketToPC+34)& (0+255),b
  1070                           
  1071                           ; BSR set to: 0
  1072                           ;BootPIC18NonJ.c: 421: PacketToPC.Length4 = (unsigned long)0x100;
  1073  000A34  0E00               	movlw	0
  1074  000A36  0100               	movlb	0	; () banked
  1075  000A38  0100               	movlb	0	; () banked
  1076  000A3A  6FC4               	movwf	(_PacketToPC+35)& (0+255),b
  1077  000A3C  0E01               	movlw	1
  1078  000A3E  0100               	movlb	0	; () banked
  1079  000A40  6FC5               	movwf	(_PacketToPC+36)& (0+255),b
  1080  000A42  0E00               	movlw	0
  1081  000A44  0100               	movlb	0	; () banked
  1082  000A46  6FC6               	movwf	(_PacketToPC+37)& (0+255),b
  1083  000A48  0E00               	movlw	0
  1084  000A4A  0100               	movlb	0	; () banked
  1085  000A4C  6FC7               	movwf	(_PacketToPC+38)& (0+255),b
  1086                           
  1087                           ; BSR set to: 0
  1088                           ;BootPIC18NonJ.c: 422: PacketToPC.Type5 = 0xFF;
  1089  000A4E  0100               	movlb	0	; () banked
  1090  000A50  0100               	movlb	0	; () banked
  1091  000A52  69C8               	setf	(_PacketToPC+39)& (0+255),b
  1092                           
  1093                           ;BootPIC18NonJ.c: 424: PacketToPC.VersionFlag = 0xA5;
  1094  000A54  6E53               	movwf	??_ProcessIO& (0+255),c
  1095  000A56  0EA5               	movlw	165
  1096  000A58  0100               	movlb	0	; () banked
  1097  000A5A  0100               	movlb	0	; () banked
  1098  000A5C  6FDA               	movwf	(_PacketToPC+57)& (0+255),b
  1099  000A5E  5053               	movf	??_ProcessIO& (0+255),w,c
  1100                           
  1101                           ; BSR set to: 0
  1102                           ;BootPIC18NonJ.c: 428: HIDTxReport((char *)&PacketToPC, 0x40);
  1103  000A60  0100               	movlb	0	; () banked
  1104  000A62  0E00               	movlw	high _PacketToPC
  1105  000A64  6E4B               	movwf	HIDTxReport@buffer+1,c
  1106  000A66  0100               	movlb	0	; () banked
  1107  000A68  0EA1               	movlw	low _PacketToPC
  1108  000A6A  6E4A               	movwf	HIDTxReport@buffer,c
  1109  000A6C  6E53               	movwf	??_ProcessIO& (0+255),c
  1110  000A6E  0E40               	movlw	64
  1111  000A70  6E4C               	movwf	HIDTxReport@len,c
  1112  000A72  5053               	movf	??_ProcessIO& (0+255),w,c
  1113  000A74  ECE7  F00B         	call	_HIDTxReport	;wreg free
  1114  000A78  D1E0               	goto	l3443
  1115  000A7A                     l3265:
  1116                           
  1117                           ;BootPIC18NonJ.c: 433: ConfigsLockValue = 1;
  1118  000A7A  6E53               	movwf	??_ProcessIO& (0+255),c
  1119  000A7C  0E01               	movlw	1
  1120  000A7E  6E31               	movwf	_ConfigsLockValue,c
  1121  000A80  5053               	movf	??_ProcessIO& (0+255),w,c
  1122                           
  1123                           ;BootPIC18NonJ.c: 434: if(PacketFromPC.LockValue == 0x00)
  1124  000A82  0100               	movlb	0	; () banked
  1125  000A84  0100               	movlb	0	; () banked
  1126  000A86  6761               	tstfsz	(_PacketFromPC+1)& (0+255),b
  1127  000A88  D1D8               	goto	l3443
  1128                           
  1129                           ; BSR set to: 0
  1130                           ;BootPIC18NonJ.c: 435: {
  1131                           ;BootPIC18NonJ.c: 436: ConfigsLockValue = 0;
  1132  000A8A  6E53               	movwf	??_ProcessIO& (0+255),c
  1133  000A8C  0E00               	movlw	0
  1134  000A8E  6E31               	movwf	_ConfigsLockValue,c
  1135  000A90  5053               	movf	??_ProcessIO& (0+255),w,c
  1136  000A92  D1D3               	goto	l3443
  1137  000A94                     l3271:
  1138                           
  1139                           ; BSR set to: 0
  1140                           ;BootPIC18NonJ.c: 442: for(ErasePageTracker = (0x2000/64); ErasePageTracker < (unsigned 
      +                          int)(511 + 1); ErasePageTracker++)
  1141  000A94  0E00               	movlw	0
  1142  000A96  6E21               	movwf	_ErasePageTracker+1,c
  1143  000A98  0E80               	movlw	128
  1144  000A9A  6E20               	movwf	_ErasePageTracker,c
  1145  000A9C                     
  1146                           ; BSR set to: 0
  1147  000A9C  0E00               	movlw	0
  1148  000A9E  5C20               	subwf	_ErasePageTracker,w,c
  1149  000AA0  0E02               	movlw	2
  1150  000AA2  5821               	subwfb	_ErasePageTracker+1,w,c
  1151  000AA4  B0D8               	btfsc	status,0,c
  1152  000AA6  D01E               	goto	l3295
  1153                           
  1154                           ;BootPIC18NonJ.c: 443: {
  1155                           ;BootPIC18NonJ.c: 444: ClearWatchdog();
  1156                           
  1157                           ; BSR set to: 0
  1158                           
  1159                           ; BSR set to: 0
  1160  000AA8  EC02  F000         	call	_ClearWatchdog	;wreg free
  1161                           
  1162                           ;BootPIC18NonJ.c: 446: TBLPTRU = 0x00;
  1163  000AAC  0E00               	movlw	0
  1164  000AAE  6EF8               	movwf	tblptru,c	;volatile
  1165                           
  1166                           ;BootPIC18NonJ.c: 447: TBLPTRH = (uint8_t)((uint32_t)ErasePageTracker >> 2);
  1167  000AB0  C020  F053         	movff	_ErasePageTracker,??_ProcessIO
  1168  000AB4  C021  F054         	movff	_ErasePageTracker+1,??_ProcessIO+1
  1169  000AB8  90D8               	bcf	status,0,c
  1170  000ABA  3254               	rrcf	??_ProcessIO+1,f,c
  1171  000ABC  3253               	rrcf	??_ProcessIO,f,c
  1172  000ABE  90D8               	bcf	status,0,c
  1173  000AC0  3254               	rrcf	??_ProcessIO+1,f,c
  1174  000AC2  3253               	rrcf	??_ProcessIO,f,c
  1175  000AC4  5053               	movf	??_ProcessIO,w,c
  1176  000AC6  6EF7               	movwf	tblptrh,c	;volatile
  1177                           
  1178                           ;BootPIC18NonJ.c: 448: TBLPTRL = (uint8_t)((uint32_t)ErasePageTracker << 6);
  1179  000AC8  4020               	rrncf	_ErasePageTracker,w,c
  1180  000ACA  42E8               	rrncf	wreg,f,c
  1181  000ACC  0BC0               	andlw	192
  1182  000ACE  6EF6               	movwf	tblptrl,c	;volatile
  1183                           
  1184                           ;BootPIC18NonJ.c: 452: EECON1 = 0b10010100;
  1185  000AD0  0E94               	movlw	148
  1186  000AD2  6EA6               	movwf	4006,c	;volatile
  1187                           
  1188                           ;BootPIC18NonJ.c: 453: UnlockAndActivate(0xB5);
  1189  000AD4  0EB5               	movlw	181
  1190  000AD6  EC24  F00E         	call	_UnlockAndActivate
  1191                           
  1192                           ;BootPIC18NonJ.c: 454: USBDeviceTasks();
  1193  000ADA  ECCD  F008         	call	_USBDeviceTasks	;wreg free
  1194  000ADE  4A20               	infsnz	_ErasePageTracker,f,c
  1195  000AE0  2A21               	incf	_ErasePageTracker+1,f,c
  1196  000AE2  D7DC               	goto	L3
  1197  000AE4                     l3295:
  1198                           
  1199                           ;BootPIC18NonJ.c: 455: }
  1200                           ;BootPIC18NonJ.c: 459: i = 0xF00000 & (0x100-1);
  1201  000AE4  6E53               	movwf	??_ProcessIO& (0+255),c
  1202  000AE6  0E00               	movlw	0
  1203  000AE8  6E24               	movwf	ProcessIO@i,c
  1204  000AEA  5053               	movf	??_ProcessIO& (0+255),w,c
  1205  000AEC                     l3297:
  1206                           
  1207                           ;BootPIC18NonJ.c: 461: EEADR = i;
  1208  000AEC  C024  FFA9         	movff	ProcessIO@i,4009	;volatile
  1209                           
  1210                           ;BootPIC18NonJ.c: 462: EEDATA = 0xFF;
  1211  000AF0  68A8               	setf	4008,c	;volatile
  1212                           
  1213                           ;BootPIC18NonJ.c: 463: EECON1 = 0b00000100;
  1214  000AF2  0E04               	movlw	4
  1215  000AF4  6EA6               	movwf	4006,c	;volatile
  1216                           
  1217                           ;BootPIC18NonJ.c: 464: USBDeviceTasks();
  1218  000AF6  ECCD  F008         	call	_USBDeviceTasks	;wreg free
  1219                           
  1220                           ;BootPIC18NonJ.c: 465: UnlockAndActivate(0xB5);
  1221  000AFA  0EB5               	movlw	181
  1222  000AFC  EC24  F00E         	call	_UnlockAndActivate
  1223                           
  1224                           ;BootPIC18NonJ.c: 466: }while(i++<((0x100-1)+(0xF00000 & (0x100-1))));
  1225  000B00  3E24               	incfsz	ProcessIO@i,f,c
  1226  000B02  D7F4               	goto	l3297
  1227                           
  1228                           ;BootPIC18NonJ.c: 471: TBLPTRU = 0x20;
  1229  000B04  0E20               	movlw	32
  1230  000B06  6EF8               	movwf	tblptru,c	;volatile
  1231                           
  1232                           ;BootPIC18NonJ.c: 472: TBLPTRH = 0x00;
  1233  000B08  0E00               	movlw	0
  1234  000B0A  6EF7               	movwf	tblptrh,c	;volatile
  1235                           
  1236                           ;BootPIC18NonJ.c: 473: TBLPTRL = (uint8_t)0x200000;
  1237  000B0C  0E00               	movlw	0
  1238  000B0E  6EF6               	movwf	tblptrl,c	;volatile
  1239                           
  1240                           ;BootPIC18NonJ.c: 474: EECON1 = 0b10010100;
  1241  000B10  0E94               	movlw	148
  1242  000B12  6EA6               	movwf	4006,c	;volatile
  1243                           
  1244                           ;BootPIC18NonJ.c: 475: UnlockAndActivate(0xB5);
  1245  000B14  0EB5               	movlw	181
  1246  000B16  EC24  F00E         	call	_UnlockAndActivate
  1247  000B1A  D18F               	goto	l3443
  1248  000B1C                     l3315:
  1249                           
  1250                           ;BootPIC18NonJ.c: 481: if(PacketFromPC.Contents[3] == 0x30)
  1251  000B1C  0100               	movlb	0	; () banked
  1252  000B1E  0100               	movlb	0	; () banked
  1253  000B20  5163               	movf	(_PacketFromPC+3)& (0+255),w,b
  1254  000B22  0A30               	xorlw	48
  1255  000B24  A4D8               	btfss	status,2,c
  1256  000B26  D005               	goto	l3323
  1257                           
  1258                           ; BSR set to: 0
  1259                           ;BootPIC18NonJ.c: 482: {
  1260                           ;BootPIC18NonJ.c: 483: if(ConfigsLockValue == 0)
  1261  000B28  6631               	tstfsz	_ConfigsLockValue,c
  1262  000B2A  D187               	goto	l3443
  1263                           
  1264                           ; BSR set to: 0
  1265                           ;BootPIC18NonJ.c: 484: {
  1266                           ;BootPIC18NonJ.c: 485: WriteConfigBits();
  1267  000B2C  EC2C  F00C         	call	_WriteConfigBits	;wreg free
  1268  000B30  D184               	goto	l3443
  1269  000B32                     l3323:
  1270                           
  1271                           ;BootPIC18NonJ.c: 489: }
  1272                           ;BootPIC18NonJ.c: 493: if(PacketFromPC.Contents[3] == 0xF0)
  1273  000B32  0100               	movlb	0	; () banked
  1274  000B34  0100               	movlb	0	; () banked
  1275  000B36  5163               	movf	(_PacketFromPC+3)& (0+255),w,b
  1276  000B38  0AF0               	xorlw	240
  1277  000B3A  A4D8               	btfss	status,2,c
  1278  000B3C  D003               	goto	l3329
  1279                           
  1280                           ; BSR set to: 0
  1281                           ;BootPIC18NonJ.c: 494: {
  1282                           ;BootPIC18NonJ.c: 495: WriteEEPROM();
  1283  000B3E  ECA6  F00C         	call	_WriteEEPROM	;wreg free
  1284  000B42  D17B               	goto	l3443
  1285  000B44                     l3329:
  1286                           
  1287                           ;BootPIC18NonJ.c: 498: }
  1288                           ;BootPIC18NonJ.c: 501: if(ProgrammedPointer == (uint32_t)0xFFFFFFFF)
  1289  000B44  2801               	incf	_ProgrammedPointer,w,c
  1290  000B46  B4D8               	btfsc	status,2,c
  1291  000B48  2802               	incf	_ProgrammedPointer+1,w,c
  1292  000B4A  B4D8               	btfsc	status,2,c
  1293  000B4C  2803               	incf	_ProgrammedPointer+2,w,c
  1294  000B4E  B4D8               	btfsc	status,2,c
  1295  000B50  2804               	incf	_ProgrammedPointer+3,w,c
  1296  000B52  A4D8               	btfss	status,2,c
  1297  000B54  D008               	goto	l3333
  1298                           
  1299                           ;BootPIC18NonJ.c: 502: ProgrammedPointer = PacketFromPC.Address;
  1300  000B56  C061  F001         	movff	_PacketFromPC+1,_ProgrammedPointer
  1301  000B5A  C062  F002         	movff	_PacketFromPC+2,_ProgrammedPointer+1
  1302  000B5E  C063  F003         	movff	_PacketFromPC+3,_ProgrammedPointer+2
  1303  000B62  C064  F004         	movff	_PacketFromPC+4,_ProgrammedPointer+3
  1304  000B66                     l3333:
  1305                           
  1306                           ;BootPIC18NonJ.c: 504: if(ProgrammedPointer == (uint32_t)PacketFromPC.Address)
  1307  000B66  5004               	movf	_ProgrammedPointer+3,w,c
  1308  000B68  0100               	movlb	0	; () banked
  1309  000B6A  0100               	movlb	0	; () banked
  1310  000B6C  1964               	xorwf	(_PacketFromPC+4)& (0+255),w,b
  1311  000B6E  E10E               	bnz	u2325
  1312  000B70  5003               	movf	_ProgrammedPointer+2,w,c
  1313  000B72  0100               	movlb	0	; () banked
  1314  000B74  0100               	movlb	0	; () banked
  1315  000B76  1963               	xorwf	(_PacketFromPC+3)& (0+255),w,b
  1316  000B78  E109               	bnz	u2325
  1317  000B7A  5002               	movf	_ProgrammedPointer+1,w,c
  1318  000B7C  0100               	movlb	0	; () banked
  1319  000B7E  0100               	movlb	0	; () banked
  1320  000B80  1962               	xorwf	(_PacketFromPC+2)& (0+255),w,b
  1321  000B82  E104               	bnz	u2325
  1322  000B84  5001               	movf	_ProgrammedPointer,w,c
  1323  000B86  0100               	movlb	0	; () banked
  1324  000B88  0100               	movlb	0	; () banked
  1325  000B8A  1961               	xorwf	(_PacketFromPC+1)& (0+255),w,b
  1326  000B8C                     u2325:
  1327  000B8C  A4D8               	btfss	status,2,c
  1328  000B8E  D155               	goto	l3443
  1329                           
  1330                           ; BSR set to: 0
  1331                           ;BootPIC18NonJ.c: 505: {
  1332                           ;BootPIC18NonJ.c: 506: for(i = 0; i < PacketFromPC.Size; i++)
  1333  000B90  6E53               	movwf	??_ProcessIO& (0+255),c
  1334  000B92  0E00               	movlw	0
  1335  000B94  6E24               	movwf	ProcessIO@i,c
  1336  000B96  5053               	movf	??_ProcessIO& (0+255),w,c
  1337  000B98  D037               	goto	l3349
  1338  000B9A                     l3337:
  1339                           
  1340                           ; BSR set to: 0
  1341                           ;BootPIC18NonJ.c: 507: {
  1342                           ;BootPIC18NonJ.c: 508: ProgrammingBuffer[BufferedDataIndex] = PacketFromPC.Data[i+(0x3A-
      +                          PacketFromPC.Size)];
  1343  000B9A  0100               	movlb	0	; () banked
  1344  000B9C  0100               	movlb	0	; () banked
  1345  000B9E  5165               	movf	(_PacketFromPC+5)& (0+255),w,b
  1346  000BA0  6E53               	movwf	??_ProcessIO& (0+255),c
  1347  000BA2  6A54               	clrf	(??_ProcessIO+1)& (0+255),c
  1348  000BA4  1E53               	comf	??_ProcessIO,f,c
  1349  000BA6  1E54               	comf	??_ProcessIO+1,f,c
  1350  000BA8  4A53               	infsnz	??_ProcessIO,f,c
  1351  000BAA  2A54               	incf	??_ProcessIO+1,f,c
  1352  000BAC  5024               	movf	ProcessIO@i,w,c
  1353  000BAE  6E55               	movwf	(??_ProcessIO+2)& (0+255),c
  1354  000BB0  6A56               	clrf	(??_ProcessIO+3)& (0+255),c
  1355  000BB2  5053               	movf	??_ProcessIO,w,c
  1356  000BB4  2655               	addwf	??_ProcessIO+2,f,c
  1357  000BB6  5054               	movf	??_ProcessIO+1,w,c
  1358  000BB8  2256               	addwfc	??_ProcessIO+3,f,c
  1359  000BBA  0E40               	movlw	64
  1360  000BBC  2655               	addwf	??_ProcessIO+2,f,c
  1361  000BBE  0E00               	movlw	0
  1362  000BC0  2256               	addwfc	??_ProcessIO+3,f,c
  1363  000BC2  0100               	movlb	0	; () banked
  1364  000BC4  0E60               	movlw	low _PacketFromPC
  1365  000BC6  2455               	addwf	??_ProcessIO+2,w,c
  1366  000BC8  6ED9               	movwf	fsr2l,c
  1367  000BCA  0100               	movlb	0	; () banked
  1368  000BCC  0E00               	movlw	high _PacketFromPC
  1369  000BCE  2056               	addwfc	??_ProcessIO+3,w,c
  1370  000BD0  6EDA               	movwf	fsr2h,c
  1371  000BD2  5030               	movf	_BufferedDataIndex,w,c
  1372  000BD4  0D01               	mullw	1
  1373  000BD6  0101               	movlb	1	; () banked
  1374  000BD8  0E00               	movlw	low _ProgrammingBuffer
  1375  000BDA  24F3               	addwf	prodl,w,c
  1376  000BDC  6EE1               	movwf	fsr1l,c
  1377  000BDE  0101               	movlb	1	; () banked
  1378  000BE0  0E01               	movlw	high _ProgrammingBuffer
  1379  000BE2  20F4               	addwfc	prodh,w,c
  1380  000BE4  6EE2               	movwf	fsr1h,c
  1381  000BE6  CFDF FFE7          	movff	indf2,indf1
  1382                           
  1383                           ; BSR set to: 1
  1384                           ;BootPIC18NonJ.c: 509: BufferedDataIndex++;
  1385  000BEA  2A30               	incf	_BufferedDataIndex,f,c
  1386                           
  1387                           ; BSR set to: 1
  1388                           ;BootPIC18NonJ.c: 510: ProgrammedPointer++;
  1389  000BEC  0E01               	movlw	1
  1390  000BEE  2601               	addwf	_ProgrammedPointer,f,c
  1391  000BF0  0E00               	movlw	0
  1392  000BF2  2202               	addwfc	_ProgrammedPointer+1,f,c
  1393  000BF4  0E00               	movlw	0
  1394  000BF6  2203               	addwfc	_ProgrammedPointer+2,f,c
  1395  000BF8  0E00               	movlw	0
  1396  000BFA  2204               	addwfc	_ProgrammedPointer+3,f,c
  1397                           
  1398                           ; BSR set to: 1
  1399                           ;BootPIC18NonJ.c: 511: if(BufferedDataIndex == 0x20)
  1400  000BFC  5030               	movf	_BufferedDataIndex,w,c
  1401  000BFE  0A20               	xorlw	32
  1402  000C00  B4D8               	btfsc	status,2,c
  1403                           
  1404                           ; BSR set to: 1
  1405                           ;BootPIC18NonJ.c: 512: {
  1406                           ;BootPIC18NonJ.c: 513: WriteFlashBlock();
  1407  000C02  ECCD  F007         	call	_WriteFlashBlock	;wreg free
  1408  000C06  2A24               	incf	ProcessIO@i,f,c
  1409  000C08                     l3349:
  1410  000C08  0100               	movlb	0	; () banked
  1411  000C0A  0100               	movlb	0	; () banked
  1412  000C0C  5165               	movf	(_PacketFromPC+5)& (0+255),w,b
  1413  000C0E  5C24               	subwf	ProcessIO@i,w,c
  1414  000C10  A0D8               	btfss	status,0,c
  1415  000C12  D7C3               	goto	l3337
  1416                           
  1417                           ; BSR set to: 0
  1418                           
  1419                           ; BSR set to: 0
  1420  000C14  D112               	goto	l3443
  1421  000C16                     l3353:
  1422                           
  1423                           ; BSR set to: 0
  1424                           ;BootPIC18NonJ.c: 523: WriteFlashBlock();
  1425  000C16  ECCD  F007         	call	_WriteFlashBlock	;wreg free
  1426                           
  1427                           ;BootPIC18NonJ.c: 524: ProgrammedPointer = 0xFFFFFFFF;
  1428  000C1A  6801               	setf	_ProgrammedPointer,c
  1429  000C1C  6802               	setf	_ProgrammedPointer+1,c
  1430  000C1E  6803               	setf	_ProgrammedPointer+2,c
  1431  000C20  6804               	setf	_ProgrammedPointer+3,c
  1432  000C22  D10B               	goto	l3443
  1433  000C24                     l3359:
  1434                           
  1435                           ;BootPIC18NonJ.c: 529: PacketToPC.Command = 0x07;
  1436  000C24  6E53               	movwf	??_ProcessIO& (0+255),c
  1437  000C26  0E07               	movlw	7
  1438  000C28  0100               	movlb	0	; () banked
  1439  000C2A  0100               	movlb	0	; () banked
  1440  000C2C  6FA1               	movwf	_PacketToPC& (0+255),b
  1441  000C2E  5053               	movf	??_ProcessIO& (0+255),w,c
  1442                           
  1443                           ; BSR set to: 0
  1444                           ;BootPIC18NonJ.c: 530: PacketToPC.Address = PacketFromPC.Address;
  1445  000C30  C061  F0A2         	movff	_PacketFromPC+1,_PacketToPC+1
  1446  000C34  C062  F0A3         	movff	_PacketFromPC+2,_PacketToPC+2
  1447  000C38  C063  F0A4         	movff	_PacketFromPC+3,_PacketToPC+3
  1448  000C3C  C064  F0A5         	movff	_PacketFromPC+4,_PacketToPC+4
  1449                           
  1450                           ; BSR set to: 0
  1451                           ;BootPIC18NonJ.c: 531: PacketToPC.Size = PacketFromPC.Size;
  1452  000C40  C065  F0A6         	movff	_PacketFromPC+5,_PacketToPC+5
  1453                           
  1454                           ; BSR set to: 0
  1455                           ;BootPIC18NonJ.c: 533: pROM = (const uint8_t*)PacketFromPC.Address;
  1456  000C44  0E20               	movlw	32
  1457  000C46  6E0B               	movwf	ProcessIO@pROM+2,c
  1458  000C48  0100               	movlb	0	; () banked
  1459  000C4A  C062  F00A         	movff	_PacketFromPC+2,ProcessIO@pROM+1
  1460  000C4E  0100               	movlb	0	; () banked
  1461  000C50  C061  F009         	movff	_PacketFromPC+1,ProcessIO@pROM
  1462                           
  1463                           ; BSR set to: 0
  1464                           ;BootPIC18NonJ.c: 534: for(i = 0; i < PacketFromPC.Size; i++)
  1465  000C54  6E53               	movwf	??_ProcessIO& (0+255),c
  1466  000C56  0E00               	movlw	0
  1467  000C58  6E24               	movwf	ProcessIO@i,c
  1468  000C5A  5053               	movf	??_ProcessIO& (0+255),w,c
  1469  000C5C  D059               	goto	l3385
  1470  000C5E                     l3369:
  1471                           
  1472                           ; BSR set to: 0
  1473                           ;BootPIC18NonJ.c: 535: {
  1474                           ;BootPIC18NonJ.c: 536: if(PacketFromPC.Contents[3] == 0xF0)
  1475  000C5E  0100               	movlb	0	; () banked
  1476  000C60  0100               	movlb	0	; () banked
  1477  000C62  5163               	movf	(_PacketFromPC+3)& (0+255),w,b
  1478  000C64  0AF0               	xorlw	240
  1479  000C66  A4D8               	btfss	status,2,c
  1480  000C68  D027               	goto	l3379
  1481                           
  1482                           ; BSR set to: 0
  1483                           ;BootPIC18NonJ.c: 537: {
  1484                           ;BootPIC18NonJ.c: 539: EEADR = (((unsigned char)PacketFromPC.Address) + i);
  1485  000C6A  0100               	movlb	0	; () banked
  1486  000C6C  0100               	movlb	0	; () banked
  1487  000C6E  5161               	movf	(_PacketFromPC+1)& (0+255),w,b
  1488  000C70  2424               	addwf	ProcessIO@i,w,c
  1489  000C72  6EA9               	movwf	4009,c	;volatile
  1490                           
  1491                           ; BSR set to: 0
  1492                           ;BootPIC18NonJ.c: 540: EECON1 = 0b00000000;
  1493  000C74  0E00               	movlw	0
  1494  000C76  6EA6               	movwf	4006,c	;volatile
  1495                           
  1496                           ; BSR set to: 0
  1497                           ;BootPIC18NonJ.c: 541: EECON1bits.RD = 1;
  1498  000C78  80A6               	bsf	4006,0,c	;volatile
  1499                           
  1500                           ; BSR set to: 0
  1501                           ;BootPIC18NonJ.c: 542: PacketToPC.Data[i+((0x40 - 6) - PacketFromPC.Size)] = EEDATA;
  1502  000C7A  0100               	movlb	0	; () banked
  1503  000C7C  0100               	movlb	0	; () banked
  1504  000C7E  5165               	movf	(_PacketFromPC+5)& (0+255),w,b
  1505  000C80  6E53               	movwf	??_ProcessIO& (0+255),c
  1506  000C82  6A54               	clrf	(??_ProcessIO+1)& (0+255),c
  1507  000C84  1E53               	comf	??_ProcessIO,f,c
  1508  000C86  1E54               	comf	??_ProcessIO+1,f,c
  1509  000C88  4A53               	infsnz	??_ProcessIO,f,c
  1510  000C8A  2A54               	incf	??_ProcessIO+1,f,c
  1511  000C8C  5024               	movf	ProcessIO@i,w,c
  1512  000C8E  6E55               	movwf	(??_ProcessIO+2)& (0+255),c
  1513  000C90  6A56               	clrf	(??_ProcessIO+3)& (0+255),c
  1514  000C92  5053               	movf	??_ProcessIO,w,c
  1515  000C94  2655               	addwf	??_ProcessIO+2,f,c
  1516  000C96  5054               	movf	??_ProcessIO+1,w,c
  1517  000C98  2256               	addwfc	??_ProcessIO+3,f,c
  1518  000C9A  0E40               	movlw	64
  1519  000C9C  2655               	addwf	??_ProcessIO+2,f,c
  1520  000C9E  0E00               	movlw	0
  1521  000CA0  2256               	addwfc	??_ProcessIO+3,f,c
  1522  000CA2  0100               	movlb	0	; () banked
  1523  000CA4  0EA1               	movlw	low _PacketToPC
  1524  000CA6  2455               	addwf	??_ProcessIO+2,w,c
  1525  000CA8  6ED9               	movwf	fsr2l,c
  1526  000CAA  0100               	movlb	0	; () banked
  1527  000CAC  0E00               	movlw	high _PacketToPC
  1528  000CAE  2056               	addwfc	??_ProcessIO+3,w,c
  1529  000CB0  6EDA               	movwf	fsr2h,c
  1530  000CB2  CFA8 FFDF          	movff	4008,indf2	;volatile
  1531                           
  1532                           ;BootPIC18NonJ.c: 544: }
  1533  000CB6  D02B               	goto	l3383
  1534  000CB8                     l3379:
  1535                           
  1536                           ; BSR set to: 0
  1537                           ;BootPIC18NonJ.c: 545: else
  1538                           ;BootPIC18NonJ.c: 546: {
  1539                           ;BootPIC18NonJ.c: 547: PacketToPC.Data[i+((0x40 - 6) - PacketFromPC.Size)] = *pROM++;
  1540  000CB8  C009  FFF6         	movff	ProcessIO@pROM,tblptrl
  1541  000CBC  C00A  FFF7         	movff	ProcessIO@pROM+1,tblptrh
  1542  000CC0  C00B  FFF8         	movff	ProcessIO@pROM+2,tblptru
  1543  000CC4  0100               	movlb	0	; () banked
  1544  000CC6  0100               	movlb	0	; () banked
  1545  000CC8  5165               	movf	(_PacketFromPC+5)& (0+255),w,b
  1546  000CCA  6E53               	movwf	??_ProcessIO& (0+255),c
  1547  000CCC  6A54               	clrf	(??_ProcessIO+1)& (0+255),c
  1548  000CCE  1E53               	comf	??_ProcessIO,f,c
  1549  000CD0  1E54               	comf	??_ProcessIO+1,f,c
  1550  000CD2  4A53               	infsnz	??_ProcessIO,f,c
  1551  000CD4  2A54               	incf	??_ProcessIO+1,f,c
  1552  000CD6  5024               	movf	ProcessIO@i,w,c
  1553  000CD8  6E55               	movwf	(??_ProcessIO+2)& (0+255),c
  1554  000CDA  6A56               	clrf	(??_ProcessIO+3)& (0+255),c
  1555  000CDC  5053               	movf	??_ProcessIO,w,c
  1556  000CDE  2655               	addwf	??_ProcessIO+2,f,c
  1557  000CE0  5054               	movf	??_ProcessIO+1,w,c
  1558  000CE2  2256               	addwfc	??_ProcessIO+3,f,c
  1559  000CE4  0E40               	movlw	64
  1560  000CE6  2655               	addwf	??_ProcessIO+2,f,c
  1561  000CE8  0E00               	movlw	0
  1562  000CEA  2256               	addwfc	??_ProcessIO+3,f,c
  1563  000CEC  0100               	movlb	0	; () banked
  1564  000CEE  0EA1               	movlw	low _PacketToPC
  1565  000CF0  2455               	addwf	??_ProcessIO+2,w,c
  1566  000CF2  6ED9               	movwf	fsr2l,c
  1567  000CF4  0100               	movlb	0	; () banked
  1568  000CF6  0E00               	movlw	high _PacketToPC
  1569  000CF8  2056               	addwfc	??_ProcessIO+3,w,c
  1570  000CFA  6EDA               	movwf	fsr2h,c
  1571  000CFC  0008               	tblrd		*
  1572  000CFE  CFF5 FFDF          	movff	tablat,indf2
  1573                           
  1574                           ; BSR set to: 0
  1575  000D02  0E01               	movlw	1
  1576  000D04  2609               	addwf	ProcessIO@pROM,f,c
  1577  000D06  0E00               	movlw	0
  1578  000D08  220A               	addwfc	ProcessIO@pROM+1,f,c
  1579  000D0A  0E00               	movlw	0
  1580  000D0C  220B               	addwfc	ProcessIO@pROM+2,f,c
  1581  000D0E                     l3383:
  1582                           
  1583                           ; BSR set to: 0
  1584  000D0E  2A24               	incf	ProcessIO@i,f,c
  1585  000D10                     l3385:
  1586                           
  1587                           ; BSR set to: 0
  1588  000D10  0100               	movlb	0	; () banked
  1589  000D12  0100               	movlb	0	; () banked
  1590  000D14  5165               	movf	(_PacketFromPC+5)& (0+255),w,b
  1591  000D16  5C24               	subwf	ProcessIO@i,w,c
  1592  000D18  A0D8               	btfss	status,0,c
  1593  000D1A  D7A1               	goto	l3369
  1594                           
  1595                           ; BSR set to: 0
  1596                           ;BootPIC18NonJ.c: 548: }
  1597                           ;BootPIC18NonJ.c: 549: }
  1598                           ;BootPIC18NonJ.c: 553: if(!ep1Bi.Stat.UOWN)
  1599  000D1C  0104               	movlb	4	; () banked
  1600  000D1E  BF10               	btfsc	16,7,b	;volatile
  1601  000D20  D0B0               	goto	l85
  1602                           
  1603                           ; BSR set to: 4
  1604                           ;BootPIC18NonJ.c: 554: {
  1605                           ;BootPIC18NonJ.c: 555: HIDTxReport((char *)&PacketToPC, 0x40);
  1606  000D22  0100               	movlb	0	; () banked
  1607  000D24  0E00               	movlw	high _PacketToPC
  1608  000D26  6E4B               	movwf	HIDTxReport@buffer+1,c
  1609  000D28  0100               	movlb	0	; () banked
  1610  000D2A  0EA1               	movlw	low _PacketToPC
  1611  000D2C  6E4A               	movwf	HIDTxReport@buffer,c
  1612  000D2E  6E53               	movwf	??_ProcessIO& (0+255),c
  1613  000D30  0E40               	movlw	64
  1614  000D32  6E4C               	movwf	HIDTxReport@len,c
  1615  000D34  5053               	movf	??_ProcessIO& (0+255),w,c
  1616  000D36  ECE7  F00B         	call	_HIDTxReport	;wreg free
  1617  000D3A  D07F               	goto	l3443
  1618  000D3C                     l3391:
  1619                           
  1620                           ;BootPIC18NonJ.c: 560: SignFlash();
  1621  000D3C  EC42  F007         	call	_SignFlash	;wreg free
  1622  000D40  D07C               	goto	l3443
  1623  000D42                     l3395:
  1624                           
  1625                           ;BootPIC18NonJ.c: 569: PacketToPC.Command = 0x0C;
  1626  000D42  6E53               	movwf	??_ProcessIO& (0+255),c
  1627  000D44  0E0C               	movlw	12
  1628  000D46  0100               	movlb	0	; () banked
  1629  000D48  0100               	movlb	0	; () banked
  1630  000D4A  6FA1               	movwf	_PacketToPC& (0+255),b
  1631  000D4C  5053               	movf	??_ProcessIO& (0+255),w,c
  1632                           
  1633                           ; BSR set to: 0
  1634                           ;BootPIC18NonJ.c: 570: PacketToPC.BootloaderVersion = ((unsigned int)1 << 8)| 2;
  1635  000D4E  0E01               	movlw	1
  1636  000D50  0100               	movlb	0	; () banked
  1637  000D52  0100               	movlb	0	; () banked
  1638  000D54  6FA3               	movwf	(_PacketToPC+2)& (0+255),b
  1639  000D56  0E02               	movlw	2
  1640  000D58  0100               	movlb	0	; () banked
  1641  000D5A  6FA2               	movwf	(_PacketToPC+1)& (0+255),b
  1642                           
  1643                           ; BSR set to: 0
  1644                           ;BootPIC18NonJ.c: 571: PacketToPC.ApplicationVersion = *(const unsigned int*)0x2016;
  1645  000D5C  0E16               	movlw	22
  1646  000D5E  6EF6               	movwf	tblptrl,c
  1647  000D60  0E20               	movlw	32
  1648  000D62  6EF7               	movwf	tblptrh,c
  1649  000D64  0009               	tblrd		*+
  1650  000D66  0100               	movlb	0	; () banked
  1651  000D68  CFF5 F0A4          	movff	tablat,_PacketToPC+3
  1652  000D6C  000A               	tblrd		*-
  1653  000D6E  0100               	movlb	0	; () banked
  1654  000D70  CFF5 F0A5          	movff	tablat,_PacketToPC+4
  1655                           
  1656                           ; BSR set to: 0
  1657                           ;BootPIC18NonJ.c: 572: PacketToPC.SignatureAddress = 0x2006;
  1658  000D74  0E06               	movlw	6
  1659  000D76  0100               	movlb	0	; () banked
  1660  000D78  0100               	movlb	0	; () banked
  1661  000D7A  6FA6               	movwf	(_PacketToPC+5)& (0+255),b
  1662  000D7C  0E20               	movlw	32
  1663  000D7E  0100               	movlb	0	; () banked
  1664  000D80  6FA7               	movwf	(_PacketToPC+6)& (0+255),b
  1665  000D82  0E00               	movlw	0
  1666  000D84  0100               	movlb	0	; () banked
  1667  000D86  6FA8               	movwf	(_PacketToPC+7)& (0+255),b
  1668  000D88  0E00               	movlw	0
  1669  000D8A  0100               	movlb	0	; () banked
  1670  000D8C  6FA9               	movwf	(_PacketToPC+8)& (0+255),b
  1671                           
  1672                           ; BSR set to: 0
  1673                           ;BootPIC18NonJ.c: 573: PacketToPC.SignatureValue = 0x600D;
  1674  000D8E  0E60               	movlw	96
  1675  000D90  0100               	movlb	0	; () banked
  1676  000D92  0100               	movlb	0	; () banked
  1677  000D94  6FAB               	movwf	(_PacketToPC+10)& (0+255),b
  1678  000D96  0E0D               	movlw	13
  1679  000D98  0100               	movlb	0	; () banked
  1680  000D9A  6FAA               	movwf	(_PacketToPC+9)& (0+255),b
  1681                           
  1682                           ; BSR set to: 0
  1683                           ;BootPIC18NonJ.c: 574: PacketToPC.ErasePageSize = 64;
  1684  000D9C  0E40               	movlw	64
  1685  000D9E  0100               	movlb	0	; () banked
  1686  000DA0  0100               	movlb	0	; () banked
  1687  000DA2  6FAC               	movwf	(_PacketToPC+11)& (0+255),b
  1688  000DA4  0E00               	movlw	0
  1689  000DA6  0100               	movlb	0	; () banked
  1690  000DA8  6FAD               	movwf	(_PacketToPC+12)& (0+255),b
  1691  000DAA  0E00               	movlw	0
  1692  000DAC  0100               	movlb	0	; () banked
  1693  000DAE  6FAE               	movwf	(_PacketToPC+13)& (0+255),b
  1694  000DB0  0E00               	movlw	0
  1695  000DB2  0100               	movlb	0	; () banked
  1696  000DB4  6FAF               	movwf	(_PacketToPC+14)& (0+255),b
  1697                           
  1698                           ; BSR set to: 0
  1699                           ;BootPIC18NonJ.c: 575: PacketToPC.Config1LMask = 0xFF;
  1700  000DB6  0100               	movlb	0	; () banked
  1701  000DB8  0100               	movlb	0	; () banked
  1702  000DBA  69B0               	setf	(_PacketToPC+15)& (0+255),b
  1703                           
  1704                           ; BSR set to: 0
  1705                           ;BootPIC18NonJ.c: 576: PacketToPC.Config1HMask = 0xFF;
  1706  000DBC  0100               	movlb	0	; () banked
  1707  000DBE  0100               	movlb	0	; () banked
  1708  000DC0  69B1               	setf	(_PacketToPC+16)& (0+255),b
  1709                           
  1710                           ; BSR set to: 0
  1711                           ;BootPIC18NonJ.c: 577: PacketToPC.Config2LMask = 0xFF;
  1712  000DC2  0100               	movlb	0	; () banked
  1713  000DC4  0100               	movlb	0	; () banked
  1714  000DC6  69B2               	setf	(_PacketToPC+17)& (0+255),b
  1715                           
  1716                           ; BSR set to: 0
  1717                           ;BootPIC18NonJ.c: 578: PacketToPC.Config2HMask = 0xFF;
  1718  000DC8  0100               	movlb	0	; () banked
  1719  000DCA  0100               	movlb	0	; () banked
  1720  000DCC  69B3               	setf	(_PacketToPC+18)& (0+255),b
  1721                           
  1722                           ; BSR set to: 0
  1723                           ;BootPIC18NonJ.c: 579: PacketToPC.Config3LMask = 0x00;
  1724  000DCE  6E53               	movwf	??_ProcessIO& (0+255),c
  1725  000DD0  0E00               	movlw	0
  1726  000DD2  0100               	movlb	0	; () banked
  1727  000DD4  0100               	movlb	0	; () banked
  1728  000DD6  6FB4               	movwf	(_PacketToPC+19)& (0+255),b
  1729  000DD8  5053               	movf	??_ProcessIO& (0+255),w,c
  1730                           
  1731                           ; BSR set to: 0
  1732                           ;BootPIC18NonJ.c: 580: PacketToPC.Config3HMask = 0xFF;
  1733  000DDA  0100               	movlb	0	; () banked
  1734  000DDC  0100               	movlb	0	; () banked
  1735  000DDE  69B5               	setf	(_PacketToPC+20)& (0+255),b
  1736                           
  1737                           ; BSR set to: 0
  1738                           ;BootPIC18NonJ.c: 581: PacketToPC.Config4LMask = 0xFF;
  1739  000DE0  0100               	movlb	0	; () banked
  1740  000DE2  0100               	movlb	0	; () banked
  1741  000DE4  69B6               	setf	(_PacketToPC+21)& (0+255),b
  1742                           
  1743                           ; BSR set to: 0
  1744                           ;BootPIC18NonJ.c: 582: PacketToPC.Config4HMask = 0x00;
  1745  000DE6  6E53               	movwf	??_ProcessIO& (0+255),c
  1746  000DE8  0E00               	movlw	0
  1747  000DEA  0100               	movlb	0	; () banked
  1748  000DEC  0100               	movlb	0	; () banked
  1749  000DEE  6FB7               	movwf	(_PacketToPC+22)& (0+255),b
  1750  000DF0  5053               	movf	??_ProcessIO& (0+255),w,c
  1751                           
  1752                           ; BSR set to: 0
  1753                           ;BootPIC18NonJ.c: 583: PacketToPC.Config5LMask = 0xFF;
  1754  000DF2  0100               	movlb	0	; () banked
  1755  000DF4  0100               	movlb	0	; () banked
  1756  000DF6  69B8               	setf	(_PacketToPC+23)& (0+255),b
  1757                           
  1758                           ; BSR set to: 0
  1759                           ;BootPIC18NonJ.c: 584: PacketToPC.Config5HMask = 0xFF;
  1760  000DF8  0100               	movlb	0	; () banked
  1761  000DFA  0100               	movlb	0	; () banked
  1762  000DFC  69B9               	setf	(_PacketToPC+24)& (0+255),b
  1763                           
  1764                           ; BSR set to: 0
  1765                           ;BootPIC18NonJ.c: 585: PacketToPC.Config6LMask = 0xFF;
  1766  000DFE  0100               	movlb	0	; () banked
  1767  000E00  0100               	movlb	0	; () banked
  1768  000E02  69BA               	setf	(_PacketToPC+25)& (0+255),b
  1769                           
  1770                           ; BSR set to: 0
  1771                           ;BootPIC18NonJ.c: 586: PacketToPC.Config6HMask = 0xFF;
  1772  000E04  0100               	movlb	0	; () banked
  1773  000E06  0100               	movlb	0	; () banked
  1774  000E08  69BB               	setf	(_PacketToPC+26)& (0+255),b
  1775                           
  1776                           ; BSR set to: 0
  1777                           ;BootPIC18NonJ.c: 587: PacketToPC.Config7LMask = 0xFF;
  1778  000E0A  0100               	movlb	0	; () banked
  1779  000E0C  0100               	movlb	0	; () banked
  1780  000E0E  69BC               	setf	(_PacketToPC+27)& (0+255),b
  1781                           
  1782                           ; BSR set to: 0
  1783                           ;BootPIC18NonJ.c: 588: PacketToPC.Config7HMask = 0xFF;
  1784  000E10  0100               	movlb	0	; () banked
  1785  000E12  0100               	movlb	0	; () banked
  1786  000E14  69BD               	setf	(_PacketToPC+28)& (0+255),b
  1787                           
  1788                           ; BSR set to: 0
  1789                           ;BootPIC18NonJ.c: 591: if(!ep1Bi.Stat.UOWN)
  1790  000E16  0104               	movlb	4	; () banked
  1791  000E18  BF10               	btfsc	16,7,b	;volatile
  1792  000E1A  D033               	goto	l85
  1793                           
  1794                           ; BSR set to: 4
  1795                           ;BootPIC18NonJ.c: 592: {
  1796                           ;BootPIC18NonJ.c: 593: HIDTxReport((char *)&PacketToPC, 0x40);
  1797  000E1C  0100               	movlb	0	; () banked
  1798  000E1E  0E00               	movlw	high _PacketToPC
  1799  000E20  6E4B               	movwf	HIDTxReport@buffer+1,c
  1800  000E22  0100               	movlb	0	; () banked
  1801  000E24  0EA1               	movlw	low _PacketToPC
  1802  000E26  6E4A               	movwf	HIDTxReport@buffer,c
  1803  000E28  6E53               	movwf	??_ProcessIO& (0+255),c
  1804  000E2A  0E40               	movlw	64
  1805  000E2C  6E4C               	movwf	HIDTxReport@len,c
  1806  000E2E  5053               	movf	??_ProcessIO& (0+255),w,c
  1807  000E30  ECE7  F00B         	call	_HIDTxReport	;wreg free
  1808  000E34  D002               	goto	l3443
  1809  000E36                     l3441:
  1810                           
  1811                           ;BootPIC18NonJ.c: 598: ResetDeviceCleanly();
  1812  000E36  EC06  F000         	call	_ResetDeviceCleanly	;wreg free
  1813  000E3A                     l3443:
  1814                           
  1815                           ;BootPIC18NonJ.c: 602: BootState = 0x00;
  1816  000E3A  6E53               	movwf	??_ProcessIO& (0+255),c
  1817  000E3C  0E00               	movlw	0
  1818  000E3E  6E2F               	movwf	_BootState,c
  1819  000E40  5053               	movf	??_ProcessIO& (0+255),w,c
  1820                           
  1821                           ;BootPIC18NonJ.c: 603: }
  1822  000E42  D01F               	goto	l85
  1823  000E44                     l3445:
  1824  000E44  0100               	movlb	0	; () banked
  1825  000E46  0100               	movlb	0	; () banked
  1826  000E48  5160               	movf	_PacketFromPC& (0+255),w,b
  1827                           
  1828                           ; Switch size 1, requested type "space"
  1829                           ; Number of cases is 9, Range of values is 2 to 12
  1830                           ; switch strategies available:
  1831                           ; Name         Instructions Cycles
  1832                           ; simple_byte           28    15 (average)
  1833                           ;	Chosen strategy is simple_byte
  1834  000E4A  0A02               	xorlw	2	; case 2
  1835  000E4C  B4D8               	btfsc	status,2,c
  1836  000E4E  D567               	goto	l92
  1837  000E50  0A01               	xorlw	1	; case 3
  1838  000E52  B4D8               	btfsc	status,2,c
  1839  000E54  D612               	goto	l3265
  1840  000E56  0A07               	xorlw	7	; case 4
  1841  000E58  B4D8               	btfsc	status,2,c
  1842  000E5A  D61C               	goto	l3271
  1843  000E5C  0A01               	xorlw	1	; case 5
  1844  000E5E  B4D8               	btfsc	status,2,c
  1845  000E60  D65D               	goto	l3315
  1846  000E62  0A03               	xorlw	3	; case 6
  1847  000E64  B4D8               	btfsc	status,2,c
  1848  000E66  D6D7               	goto	l3353
  1849  000E68  0A01               	xorlw	1	; case 7
  1850  000E6A  B4D8               	btfsc	status,2,c
  1851  000E6C  D6DB               	goto	l3359
  1852  000E6E  0A0F               	xorlw	15	; case 8
  1853  000E70  B4D8               	btfsc	status,2,c
  1854  000E72  D7E1               	goto	l3441
  1855  000E74  0A01               	xorlw	1	; case 9
  1856  000E76  B4D8               	btfsc	status,2,c
  1857  000E78  D761               	goto	l3391
  1858  000E7A  0A05               	xorlw	5	; case 12
  1859  000E7C  B4D8               	btfsc	status,2,c
  1860  000E7E  D761               	goto	l3395
  1861  000E80  D7DC               	goto	l3443
  1862  000E82                     l85:
  1863  000E82  0012               	return	
  1864  000E84                     __end_of_ProcessIO:
  1865                           	opt stack 0
  1866                           stkptr	equ	0xFFC
  1867                           tblptru	equ	0xFF8
  1868                           tblptrh	equ	0xFF7
  1869                           tblptrl	equ	0xFF6
  1870                           tablat	equ	0xFF5
  1871                           prodh	equ	0xFF4
  1872                           prodl	equ	0xFF3
  1873                           intcon	equ	0xFF2
  1874                           postinc0	equ	0xFEE
  1875                           wreg	equ	0xFE8
  1876                           indf1	equ	0xFE7
  1877                           fsr1h	equ	0xFE2
  1878                           fsr1l	equ	0xFE1
  1879                           indf2	equ	0xFDF
  1880                           fsr2h	equ	0xFDA
  1881                           fsr2l	equ	0xFD9
  1882                           status	equ	0xFD8
  1883                           
  1884 ;; *************** function _WriteFlashBlock *****************
  1885 ;; Defined at:
  1886 ;;		line 721 in file "../src/BootPIC18NonJ.c"
  1887 ;; Parameters:    Size  Location     Type
  1888 ;;		None
  1889 ;; Auto vars:     Size  Location     Type
  1890 ;;		None
  1891 ;; Return value:  Size  Location     Type
  1892 ;;		None               void
  1893 ;; Registers used:
  1894 ;;		wreg, fsr1l, fsr1h, fsr2l, fsr2h, status,2, status,0, prodl, prodh, cstack
  1895 ;; Tracked objects:
  1896 ;;		On entry : 0/0
  1897 ;;		On exit  : 0/0
  1898 ;;		Unchanged: 0/0
  1899 ;; Data sizes:     COMRAM   BANK0   BANK1   BANK2   BANK3  BANK4h   BANK5   BANK6   BANK7
  1900 ;;      Params:         0       0       0       0       0       0       0       0       0
  1901 ;;      Locals:         0       0       0       0       0       0       0       0       0
  1902 ;;      Temps:          8       0       0       0       0       0       0       0       0
  1903 ;;      Totals:         8       0       0       0       0       0       0       0       0
  1904 ;;Total ram usage:        8 bytes
  1905 ;; Hardware stack levels used:    1
  1906 ;; Hardware stack levels required when called:    2
  1907 ;; This function calls:
  1908 ;;		_UnlockAndActivate
  1909 ;; This function is called by:
  1910 ;;		_ProcessIO
  1911 ;; This function uses a non-reentrant model
  1912 ;;
  1913                           
  1914                           	psect	text3
  1915  000F9A                     __ptext3:
  1916                           	opt stack 0
  1917  000F9A                     _WriteFlashBlock:
  1918                           	opt stack 26
  1919                           
  1920                           ;BootPIC18NonJ.c: 723: static unsigned char i;
  1921                           ;BootPIC18NonJ.c: 724: static unsigned char BytesTakenFromBuffer;
  1922                           ;BootPIC18NonJ.c: 725: static unsigned char CorrectionFactor;
  1923                           ;BootPIC18NonJ.c: 728: static const uint8_t* pROM;
  1924                           ;BootPIC18NonJ.c: 730: pROM = (const uint8_t*)(ProgrammedPointer - BufferedDataIndex);
  1925                           
  1926                           ;incstack = 0
  1927  000F9A  C030  F04B         	movff	_BufferedDataIndex,??_WriteFlashBlock
  1928  000F9E  6A4C               	clrf	(??_WriteFlashBlock+1)& (0+255),c
  1929  000FA0  6A4D               	clrf	(??_WriteFlashBlock+2)& (0+255),c
  1930  000FA2  6A4E               	clrf	(??_WriteFlashBlock+3)& (0+255),c
  1931  000FA4  1E4B               	comf	??_WriteFlashBlock,f,c
  1932  000FA6  1E4C               	comf	??_WriteFlashBlock+1,f,c
  1933  000FA8  1E4D               	comf	??_WriteFlashBlock+2,f,c
  1934  000FAA  1E4E               	comf	??_WriteFlashBlock+3,f,c
  1935  000FAC  2A4B               	incf	??_WriteFlashBlock,f,c
  1936  000FAE  0E00               	movlw	0
  1937  000FB0  224C               	addwfc	??_WriteFlashBlock+1,f,c
  1938  000FB2  224D               	addwfc	??_WriteFlashBlock+2,f,c
  1939  000FB4  224E               	addwfc	??_WriteFlashBlock+3,f,c
  1940  000FB6  5001               	movf	_ProgrammedPointer,w,c
  1941  000FB8  244B               	addwf	??_WriteFlashBlock,w,c
  1942  000FBA  6E4F               	movwf	(??_WriteFlashBlock+4)& (0+255),c
  1943  000FBC  5002               	movf	_ProgrammedPointer+1,w,c
  1944  000FBE  204C               	addwfc	??_WriteFlashBlock+1,w,c
  1945  000FC0  6E50               	movwf	(??_WriteFlashBlock+5)& (0+255),c
  1946  000FC2  5003               	movf	_ProgrammedPointer+2,w,c
  1947  000FC4  204D               	addwfc	??_WriteFlashBlock+2,w,c
  1948  000FC6  6E51               	movwf	(??_WriteFlashBlock+6)& (0+255),c
  1949  000FC8  5004               	movf	_ProgrammedPointer+3,w,c
  1950  000FCA  204E               	addwfc	??_WriteFlashBlock+3,w,c
  1951  000FCC  6E52               	movwf	(??_WriteFlashBlock+7)& (0+255),c
  1952  000FCE  504F               	movf	??_WriteFlashBlock+4,w,c
  1953  000FD0  6E0F               	movwf	WriteFlashBlock@pROM,c
  1954  000FD2  C050  F010         	movff	??_WriteFlashBlock+5,WriteFlashBlock@pROM+1
  1955  000FD6  C051  F011         	movff	??_WriteFlashBlock+6,WriteFlashBlock@pROM+2
  1956                           
  1957                           ;BootPIC18NonJ.c: 731: TBLPTRU = 0x00;
  1958  000FDA  0E00               	movlw	0
  1959  000FDC  6EF8               	movwf	tblptru,c	;volatile
  1960                           
  1961                           ;BootPIC18NonJ.c: 732: TBLPTRH = (uint8_t)((uint16_t)pROM >> 8);
  1962  000FDE  C010  F04B         	movff	WriteFlashBlock@pROM+1,??_WriteFlashBlock
  1963  000FE2  C04B  F04C         	movff	??_WriteFlashBlock,??_WriteFlashBlock+1
  1964  000FE6  6A4D               	clrf	(??_WriteFlashBlock+2)& (0+255),c
  1965  000FE8  504C               	movf	??_WriteFlashBlock+1,w,c
  1966  000FEA  6EF7               	movwf	tblptrh,c	;volatile
  1967                           
  1968                           ;BootPIC18NonJ.c: 733: TBLPTRL = (uint8_t)pROM;
  1969  000FEC  C00F  FFF6         	movff	WriteFlashBlock@pROM,tblptrl	;volatile
  1970                           
  1971                           ;BootPIC18NonJ.c: 738: BytesTakenFromBuffer = 0;
  1972  000FF0  6E4B               	movwf	??_WriteFlashBlock& (0+255),c
  1973  000FF2  0E00               	movlw	0
  1974  000FF4  6E2C               	movwf	WriteFlashBlock@BytesTakenFromBuffer,c
  1975  000FF6  504B               	movf	??_WriteFlashBlock& (0+255),w,c
  1976                           
  1977                           ;BootPIC18NonJ.c: 754: CorrectionFactor = (TBLPTRL & 0b00011111);
  1978  000FF8  50F6               	movf	tblptrl,w,c	;volatile
  1979  000FFA  0B1F               	andlw	31
  1980  000FFC  6E2D               	movwf	WriteFlashBlock@CorrectionFactor,c
  1981                           
  1982                           ;BootPIC18NonJ.c: 755: TBLPTRL &= 0b11100000;
  1983  000FFE  0EE0               	movlw	224
  1984  001000  16F6               	andwf	tblptrl,f,c	;volatile
  1985                           
  1986                           ;BootPIC18NonJ.c: 766: for(i = 0; i < 0x20; i++)
  1987  001002  6E4B               	movwf	??_WriteFlashBlock& (0+255),c
  1988  001004  0E00               	movlw	0
  1989  001006  6E2E               	movwf	WriteFlashBlock@i,c
  1990  001008  504B               	movf	??_WriteFlashBlock& (0+255),w,c
  1991  00100A  D01C               	goto	L10
  1992  00100C                     l152:
  1993                           
  1994                           ;BootPIC18NonJ.c: 767: {
  1995                           ;BootPIC18NonJ.c: 768: if(CorrectionFactor == 0)
  1996  00100C  662D               	tstfsz	WriteFlashBlock@CorrectionFactor,c
  1997  00100E  D016               	goto	l154
  1998                           
  1999                           ;BootPIC18NonJ.c: 769: {
  2000                           ;BootPIC18NonJ.c: 770: if(BufferedDataIndex != 0)
  2001  001010  5030               	movf	_BufferedDataIndex,w,c
  2002  001012  B4D8               	btfsc	status,2,c
  2003  001014  D010               	goto	l155
  2004                           
  2005                           ;BootPIC18NonJ.c: 771: {
  2006                           ;BootPIC18NonJ.c: 772: TABLAT = ProgrammingBuffer[BytesTakenFromBuffer];
  2007  001016  502C               	movf	WriteFlashBlock@BytesTakenFromBuffer,w,c
  2008  001018  0D01               	mullw	1
  2009  00101A  0101               	movlb	1	; () banked
  2010  00101C  0E00               	movlw	low _ProgrammingBuffer
  2011  00101E  24F3               	addwf	prodl,w,c
  2012  001020  6ED9               	movwf	fsr2l,c
  2013  001022  0101               	movlb	1	; () banked
  2014  001024  0E01               	movlw	high _ProgrammingBuffer
  2015  001026  20F4               	addwfc	prodh,w,c
  2016  001028  6EDA               	movwf	fsr2h,c
  2017  00102A  50DF               	movf	indf2,w,c
  2018  00102C  6EF5               	movwf	tablat,c	;volatile
  2019  00102E  000D               	tblwt		*+	;# 
  2020                           
  2021                           ;BootPIC18NonJ.c: 781: BytesTakenFromBuffer++;
  2022  001030  2A2C               	incf	WriteFlashBlock@BytesTakenFromBuffer,f,c
  2023                           
  2024                           ;BootPIC18NonJ.c: 782: BufferedDataIndex--;
  2025  001032  0630               	decf	_BufferedDataIndex,f,c
  2026                           
  2027                           ;BootPIC18NonJ.c: 783: }
  2028  001034  D006               	goto	l157
  2029  001036                     l155:
  2030                           
  2031                           ;BootPIC18NonJ.c: 784: else
  2032                           ;BootPIC18NonJ.c: 785: {
  2033                           ;BootPIC18NonJ.c: 786: TABLAT = 0xFF;
  2034  001036  68F5               	setf	tablat,c	;volatile
  2035  001038  000D               	tblwt		*+	;# 
  2036  00103A  D003               	goto	l157
  2037  00103C                     l154:
  2038                           
  2039                           ;BootPIC18NonJ.c: 798: else
  2040                           ;BootPIC18NonJ.c: 799: {
  2041                           ;BootPIC18NonJ.c: 800: TABLAT = 0xFF;
  2042  00103C  68F5               	setf	tablat,c	;volatile
  2043  00103E  000D               	tblwt		*+	;# 
  2044                           
  2045                           ;BootPIC18NonJ.c: 808: CorrectionFactor--;
  2046  001040  062D               	decf	WriteFlashBlock@CorrectionFactor,f,c
  2047  001042                     l157:
  2048  001042  2A2E               	incf	WriteFlashBlock@i,f,c
  2049  001044                     L10:
  2050  001044  0E1F               	movlw	31
  2051  001046  642E               	cpfsgt	WriteFlashBlock@i,c
  2052  001048  D7E1               	goto	l152
  2053  00104A  000A               	tblrd		*-	;# 
  2054                           
  2055                           ;BootPIC18NonJ.c: 821: EECON1 = 0b10100100;
  2056  00104C  0EA4               	movlw	164
  2057  00104E  6EA6               	movwf	4006,c	;volatile
  2058                           
  2059                           ;BootPIC18NonJ.c: 822: UnlockAndActivate(0xB5);
  2060  001050  0EB5               	movlw	181
  2061  001052  EC24  F00E         	call	_UnlockAndActivate
  2062                           
  2063                           ;BootPIC18NonJ.c: 826: for(i = 0; i < BufferedDataIndex; i++)
  2064  001056  6E4B               	movwf	??_WriteFlashBlock& (0+255),c
  2065  001058  0E00               	movlw	0
  2066  00105A  6E2E               	movwf	WriteFlashBlock@i,c
  2067  00105C  504B               	movf	??_WriteFlashBlock& (0+255),w,c
  2068  00105E  D01C               	goto	l2889
  2069  001060                     l2885:
  2070                           
  2071                           ;BootPIC18NonJ.c: 827: {
  2072                           ;BootPIC18NonJ.c: 828: ProgrammingBuffer[i] = ProgrammingBuffer[BytesTakenFromBuffer+i];
  2073  001060  502E               	movf	WriteFlashBlock@i,w,c
  2074  001062  C02C  F04B         	movff	WriteFlashBlock@BytesTakenFromBuffer,??_WriteFlashBlock
  2075  001066  6A4C               	clrf	(??_WriteFlashBlock+1)& (0+255),c
  2076  001068  264B               	addwf	??_WriteFlashBlock,f,c
  2077  00106A  0E00               	movlw	0
  2078  00106C  224C               	addwfc	??_WriteFlashBlock+1,f,c
  2079  00106E  0101               	movlb	1	; () banked
  2080  001070  0E00               	movlw	low _ProgrammingBuffer
  2081  001072  244B               	addwf	??_WriteFlashBlock,w,c
  2082  001074  6ED9               	movwf	fsr2l,c
  2083  001076  0101               	movlb	1	; () banked
  2084  001078  0E01               	movlw	high _ProgrammingBuffer
  2085  00107A  204C               	addwfc	??_WriteFlashBlock+1,w,c
  2086  00107C  6EDA               	movwf	fsr2h,c
  2087  00107E  502E               	movf	WriteFlashBlock@i,w,c
  2088  001080  0D01               	mullw	1
  2089  001082  0101               	movlb	1	; () banked
  2090  001084  0E00               	movlw	low _ProgrammingBuffer
  2091  001086  24F3               	addwf	prodl,w,c
  2092  001088  6EE1               	movwf	fsr1l,c
  2093  00108A  0101               	movlb	1	; () banked
  2094  00108C  0E01               	movlw	high _ProgrammingBuffer
  2095  00108E  20F4               	addwfc	prodh,w,c
  2096  001090  6EE2               	movwf	fsr1h,c
  2097  001092  CFDF FFE7          	movff	indf2,indf1
  2098                           
  2099                           ; BSR set to: 1
  2100  001096  2A2E               	incf	WriteFlashBlock@i,f,c
  2101  001098                     l2889:
  2102  001098  5030               	movf	_BufferedDataIndex,w,c
  2103  00109A  5C2E               	subwf	WriteFlashBlock@i,w,c
  2104  00109C  B0D8               	btfsc	status,0,c
  2105  00109E  0012               	return	
  2106  0010A0  D7DF               	goto	l2885
  2107  0010A2                     __end_of_WriteFlashBlock:
  2108                           	opt stack 0
  2109                           stkptr	equ	0xFFC
  2110                           tblptru	equ	0xFF8
  2111                           tblptrh	equ	0xFF7
  2112                           tblptrl	equ	0xFF6
  2113                           tablat	equ	0xFF5
  2114                           prodh	equ	0xFF4
  2115                           prodl	equ	0xFF3
  2116                           intcon	equ	0xFF2
  2117                           postinc0	equ	0xFEE
  2118                           wreg	equ	0xFE8
  2119                           indf1	equ	0xFE7
  2120                           fsr1h	equ	0xFE2
  2121                           fsr1l	equ	0xFE1
  2122                           indf2	equ	0xFDF
  2123                           fsr2h	equ	0xFDA
  2124                           fsr2l	equ	0xFD9
  2125                           status	equ	0xFD8
  2126                           
  2127 ;; *************** function _WriteEEPROM *****************
  2128 ;; Defined at:
  2129 ;;		line 870 in file "../src/BootPIC18NonJ.c"
  2130 ;; Parameters:    Size  Location     Type
  2131 ;;		None
  2132 ;; Auto vars:     Size  Location     Type
  2133 ;;		None
  2134 ;; Return value:  Size  Location     Type
  2135 ;;		None               void
  2136 ;; Registers used:
  2137 ;;		wreg, fsr2l, fsr2h, status,2, status,0, cstack
  2138 ;; Tracked objects:
  2139 ;;		On entry : 0/0
  2140 ;;		On exit  : 0/0
  2141 ;;		Unchanged: 0/0
  2142 ;; Data sizes:     COMRAM   BANK0   BANK1   BANK2   BANK3  BANK4h   BANK5   BANK6   BANK7
  2143 ;;      Params:         0       0       0       0       0       0       0       0       0
  2144 ;;      Locals:         0       0       0       0       0       0       0       0       0
  2145 ;;      Temps:          4       0       0       0       0       0       0       0       0
  2146 ;;      Totals:         4       0       0       0       0       0       0       0       0
  2147 ;;Total ram usage:        4 bytes
  2148 ;; Hardware stack levels used:    1
  2149 ;; Hardware stack levels required when called:    2
  2150 ;; This function calls:
  2151 ;;		_UnlockAndActivate
  2152 ;; This function is called by:
  2153 ;;		_ProcessIO
  2154 ;; This function uses a non-reentrant model
  2155 ;;
  2156                           
  2157                           	psect	text4
  2158  00194C                     __ptext4:
  2159                           	opt stack 0
  2160  00194C                     _WriteEEPROM:
  2161                           	opt stack 26
  2162                           
  2163                           ;BootPIC18NonJ.c: 872: static unsigned char i;
  2164                           ;BootPIC18NonJ.c: 874: for(i = 0; i < PacketFromPC.Size; i++)
  2165                           
  2166                           ;incstack = 0
  2167  00194C  6E4B               	movwf	??_WriteEEPROM& (0+255),c
  2168  00194E  0E00               	movlw	0
  2169  001950  6E2B               	movwf	WriteEEPROM@i,c
  2170  001952  504B               	movf	??_WriteEEPROM& (0+255),w,c
  2171  001954  D029               	goto	l2845
  2172  001956                     l2835:
  2173                           
  2174                           ;BootPIC18NonJ.c: 875: {
  2175                           ;BootPIC18NonJ.c: 876: EEADR = (((unsigned char)PacketFromPC.Address) + i);
  2176  001956  0100               	movlb	0	; () banked
  2177  001958  0100               	movlb	0	; () banked
  2178  00195A  5161               	movf	(_PacketFromPC+1)& (0+255),w,b
  2179  00195C  242B               	addwf	WriteEEPROM@i,w,c
  2180  00195E  6EA9               	movwf	4009,c	;volatile
  2181                           
  2182                           ; BSR set to: 0
  2183                           ;BootPIC18NonJ.c: 877: EEDATA = PacketFromPC.Data[i+(0x3A-PacketFromPC.Size)];
  2184  001960  0100               	movlb	0	; () banked
  2185  001962  0100               	movlb	0	; () banked
  2186  001964  5165               	movf	(_PacketFromPC+5)& (0+255),w,b
  2187  001966  6E4B               	movwf	??_WriteEEPROM& (0+255),c
  2188  001968  6A4C               	clrf	(??_WriteEEPROM+1)& (0+255),c
  2189  00196A  1E4B               	comf	??_WriteEEPROM,f,c
  2190  00196C  1E4C               	comf	??_WriteEEPROM+1,f,c
  2191  00196E  4A4B               	infsnz	??_WriteEEPROM,f,c
  2192  001970  2A4C               	incf	??_WriteEEPROM+1,f,c
  2193  001972  502B               	movf	WriteEEPROM@i,w,c
  2194  001974  6E4D               	movwf	(??_WriteEEPROM+2)& (0+255),c
  2195  001976  6A4E               	clrf	(??_WriteEEPROM+3)& (0+255),c
  2196  001978  504B               	movf	??_WriteEEPROM,w,c
  2197  00197A  264D               	addwf	??_WriteEEPROM+2,f,c
  2198  00197C  504C               	movf	??_WriteEEPROM+1,w,c
  2199  00197E  224E               	addwfc	??_WriteEEPROM+3,f,c
  2200  001980  0E40               	movlw	64
  2201  001982  264D               	addwf	??_WriteEEPROM+2,f,c
  2202  001984  0E00               	movlw	0
  2203  001986  224E               	addwfc	??_WriteEEPROM+3,f,c
  2204  001988  0100               	movlb	0	; () banked
  2205  00198A  0E60               	movlw	low _PacketFromPC
  2206  00198C  244D               	addwf	??_WriteEEPROM+2,w,c
  2207  00198E  6ED9               	movwf	fsr2l,c
  2208  001990  0100               	movlb	0	; () banked
  2209  001992  0E00               	movlw	high _PacketFromPC
  2210  001994  204E               	addwfc	??_WriteEEPROM+3,w,c
  2211  001996  6EDA               	movwf	fsr2h,c
  2212  001998  50DF               	movf	indf2,w,c
  2213  00199A  6EA8               	movwf	4008,c	;volatile
  2214                           
  2215                           ; BSR set to: 0
  2216                           ;BootPIC18NonJ.c: 879: EECON1 = 0b00000100;
  2217  00199C  0E04               	movlw	4
  2218  00199E  6EA6               	movwf	4006,c	;volatile
  2219                           
  2220                           ; BSR set to: 0
  2221                           ;BootPIC18NonJ.c: 880: UnlockAndActivate(0xB5);
  2222  0019A0  0EB5               	movlw	181
  2223  0019A2  EC24  F00E         	call	_UnlockAndActivate
  2224  0019A6  2A2B               	incf	WriteEEPROM@i,f,c
  2225  0019A8                     l2845:
  2226  0019A8  0100               	movlb	0	; () banked
  2227  0019AA  0100               	movlb	0	; () banked
  2228  0019AC  5165               	movf	(_PacketFromPC+5)& (0+255),w,b
  2229  0019AE  5C2B               	subwf	WriteEEPROM@i,w,c
  2230  0019B0  B0D8               	btfsc	status,0,c
  2231                           
  2232                           ; BSR set to: 0
  2233                           
  2234                           ; BSR set to: 0
  2235  0019B2  0012               	return	
  2236  0019B4  D7D0               	goto	l2835
  2237  0019B6                     __end_of_WriteEEPROM:
  2238                           	opt stack 0
  2239                           stkptr	equ	0xFFC
  2240                           tblptru	equ	0xFF8
  2241                           tblptrh	equ	0xFF7
  2242                           tblptrl	equ	0xFF6
  2243                           tablat	equ	0xFF5
  2244                           prodh	equ	0xFF4
  2245                           prodl	equ	0xFF3
  2246                           intcon	equ	0xFF2
  2247                           postinc0	equ	0xFEE
  2248                           wreg	equ	0xFE8
  2249                           indf1	equ	0xFE7
  2250                           fsr1h	equ	0xFE2
  2251                           fsr1l	equ	0xFE1
  2252                           indf2	equ	0xFDF
  2253                           fsr2h	equ	0xFDA
  2254                           fsr2l	equ	0xFD9
  2255                           status	equ	0xFD8
  2256                           
  2257 ;; *************** function _WriteConfigBits *****************
  2258 ;; Defined at:
  2259 ;;		line 833 in file "../src/BootPIC18NonJ.c"
  2260 ;; Parameters:    Size  Location     Type
  2261 ;;		None
  2262 ;; Auto vars:     Size  Location     Type
  2263 ;;		None
  2264 ;; Return value:  Size  Location     Type
  2265 ;;		None               void
  2266 ;; Registers used:
  2267 ;;		wreg, fsr2l, fsr2h, status,2, status,0, cstack
  2268 ;; Tracked objects:
  2269 ;;		On entry : 0/0
  2270 ;;		On exit  : 0/0
  2271 ;;		Unchanged: 0/0
  2272 ;; Data sizes:     COMRAM   BANK0   BANK1   BANK2   BANK3  BANK4h   BANK5   BANK6   BANK7
  2273 ;;      Params:         0       0       0       0       0       0       0       0       0
  2274 ;;      Locals:         0       0       0       0       0       0       0       0       0
  2275 ;;      Temps:          4       0       0       0       0       0       0       0       0
  2276 ;;      Totals:         4       0       0       0       0       0       0       0       0
  2277 ;;Total ram usage:        4 bytes
  2278 ;; Hardware stack levels used:    1
  2279 ;; Hardware stack levels required when called:    2
  2280 ;; This function calls:
  2281 ;;		_UnlockAndActivate
  2282 ;; This function is called by:
  2283 ;;		_ProcessIO
  2284 ;; This function uses a non-reentrant model
  2285 ;;
  2286                           
  2287                           	psect	text5
  2288  001858                     __ptext5:
  2289                           	opt stack 0
  2290  001858                     _WriteConfigBits:
  2291                           	opt stack 26
  2292                           
  2293                           ;BootPIC18NonJ.c: 835: static unsigned char i;
  2294                           ;BootPIC18NonJ.c: 838: TBLPTRU = 0x30;
  2295                           
  2296                           ; BSR set to: 0
  2297                           ;incstack = 0
  2298  001858  0E30               	movlw	48
  2299  00185A  6EF8               	movwf	tblptru,c	;volatile
  2300                           
  2301                           ;BootPIC18NonJ.c: 839: TBLPTRH = (uint8_t)((uint16_t)PacketFromPC.Address >> 8);
  2302  00185C  0100               	movlb	0	; () banked
  2303  00185E  C062  F04B         	movff	_PacketFromPC+2,??_WriteConfigBits
  2304  001862  C04B  F04C         	movff	??_WriteConfigBits,??_WriteConfigBits+1
  2305  001866  6A4D               	clrf	(??_WriteConfigBits+2)& (0+255),c
  2306  001868  504C               	movf	??_WriteConfigBits+1,w,c
  2307  00186A  6EF7               	movwf	tblptrh,c	;volatile
  2308                           
  2309                           ; BSR set to: 0
  2310                           ;BootPIC18NonJ.c: 840: TBLPTRH = (uint8_t)(PacketFromPC.Address);
  2311  00186C  C061  FFF7         	movff	_PacketFromPC+1,tblptrh	;volatile
  2312                           
  2313                           ; BSR set to: 0
  2314                           ;BootPIC18NonJ.c: 845: for(i = 0; i < PacketFromPC.Size; i++)
  2315  001870  6E4B               	movwf	??_WriteConfigBits& (0+255),c
  2316  001872  0E00               	movlw	0
  2317  001874  6E2A               	movwf	WriteConfigBits@i,c
  2318  001876  504B               	movf	??_WriteConfigBits& (0+255),w,c
  2319  001878  D026               	goto	l2831
  2320  00187A                     l2823:
  2321                           
  2322                           ; BSR set to: 0
  2323                           ;BootPIC18NonJ.c: 846: {
  2324                           ;BootPIC18NonJ.c: 847: TABLAT = PacketFromPC.Data[i+(0x3A-PacketFromPC.Size)];
  2325  00187A  0100               	movlb	0	; () banked
  2326  00187C  0100               	movlb	0	; () banked
  2327  00187E  5165               	movf	(_PacketFromPC+5)& (0+255),w,b
  2328  001880  6E4B               	movwf	??_WriteConfigBits& (0+255),c
  2329  001882  6A4C               	clrf	(??_WriteConfigBits+1)& (0+255),c
  2330  001884  1E4B               	comf	??_WriteConfigBits,f,c
  2331  001886  1E4C               	comf	??_WriteConfigBits+1,f,c
  2332  001888  4A4B               	infsnz	??_WriteConfigBits,f,c
  2333  00188A  2A4C               	incf	??_WriteConfigBits+1,f,c
  2334  00188C  502A               	movf	WriteConfigBits@i,w,c
  2335  00188E  6E4D               	movwf	(??_WriteConfigBits+2)& (0+255),c
  2336  001890  6A4E               	clrf	(??_WriteConfigBits+3)& (0+255),c
  2337  001892  504B               	movf	??_WriteConfigBits,w,c
  2338  001894  264D               	addwf	??_WriteConfigBits+2,f,c
  2339  001896  504C               	movf	??_WriteConfigBits+1,w,c
  2340  001898  224E               	addwfc	??_WriteConfigBits+3,f,c
  2341  00189A  0E40               	movlw	64
  2342  00189C  264D               	addwf	??_WriteConfigBits+2,f,c
  2343  00189E  0E00               	movlw	0
  2344  0018A0  224E               	addwfc	??_WriteConfigBits+3,f,c
  2345  0018A2  0100               	movlb	0	; () banked
  2346  0018A4  0E60               	movlw	low _PacketFromPC
  2347  0018A6  244D               	addwf	??_WriteConfigBits+2,w,c
  2348  0018A8  6ED9               	movwf	fsr2l,c
  2349  0018AA  0100               	movlb	0	; () banked
  2350  0018AC  0E00               	movlw	high _PacketFromPC
  2351  0018AE  204E               	addwfc	??_WriteConfigBits+3,w,c
  2352  0018B0  6EDA               	movwf	fsr2h,c
  2353  0018B2  50DF               	movf	indf2,w,c
  2354  0018B4  6EF5               	movwf	tablat,c	;volatile
  2355  0018B6  000C               	tblwt		*	;# 
  2356                           
  2357                           ;BootPIC18NonJ.c: 856: EECON1 = 0b11000100;
  2358  0018B8  0EC4               	movlw	196
  2359  0018BA  6EA6               	movwf	4006,c	;volatile
  2360                           
  2361                           ;BootPIC18NonJ.c: 857: UnlockAndActivate(0xB5);
  2362  0018BC  0EB5               	movlw	181
  2363  0018BE  EC24  F00E         	call	_UnlockAndActivate
  2364  0018C2  0009               	tblrd		*+	;# 
  2365  0018C4  2A2A               	incf	WriteConfigBits@i,f,c
  2366  0018C6                     l2831:
  2367  0018C6  0100               	movlb	0	; () banked
  2368  0018C8  0100               	movlb	0	; () banked
  2369  0018CA  5165               	movf	(_PacketFromPC+5)& (0+255),w,b
  2370  0018CC  5C2A               	subwf	WriteConfigBits@i,w,c
  2371  0018CE  B0D8               	btfsc	status,0,c
  2372                           
  2373                           ; BSR set to: 0
  2374                           
  2375                           ; BSR set to: 0
  2376  0018D0  0012               	return	
  2377  0018D2  D7D3               	goto	l2823
  2378  0018D4                     __end_of_WriteConfigBits:
  2379                           	opt stack 0
  2380                           stkptr	equ	0xFFC
  2381                           tblptru	equ	0xFF8
  2382                           tblptrh	equ	0xFF7
  2383                           tblptrl	equ	0xFF6
  2384                           tablat	equ	0xFF5
  2385                           prodh	equ	0xFF4
  2386                           prodl	equ	0xFF3
  2387                           intcon	equ	0xFF2
  2388                           postinc0	equ	0xFEE
  2389                           wreg	equ	0xFE8
  2390                           indf1	equ	0xFE7
  2391                           fsr1h	equ	0xFE2
  2392                           fsr1l	equ	0xFE1
  2393                           indf2	equ	0xFDF
  2394                           fsr2h	equ	0xFDA
  2395                           fsr2l	equ	0xFD9
  2396                           status	equ	0xFD8
  2397                           
  2398 ;; *************** function _USBDeviceTasks *****************
  2399 ;; Defined at:
  2400 ;;		line 464 in file "../src/usb_device.c"
  2401 ;; Parameters:    Size  Location     Type
  2402 ;;		None
  2403 ;; Auto vars:     Size  Location     Type
  2404 ;;		None
  2405 ;; Return value:  Size  Location     Type
  2406 ;;		None               void
  2407 ;; Registers used:
  2408 ;;		wreg, fsr1l, fsr1h, fsr2l, fsr2h, status,2, status,0, tblptrl, tblptrh, tblptru, prodl, prodh, cstack
  2409 ;; Tracked objects:
  2410 ;;		On entry : 0/0
  2411 ;;		On exit  : 0/0
  2412 ;;		Unchanged: 0/0
  2413 ;; Data sizes:     COMRAM   BANK0   BANK1   BANK2   BANK3  BANK4h   BANK5   BANK6   BANK7
  2414 ;;      Params:         0       0       0       0       0       0       0       0       0
  2415 ;;      Locals:         0       0       0       0       0       0       0       0       0
  2416 ;;      Temps:          2       0       0       0       0       0       0       0       0
  2417 ;;      Totals:         2       0       0       0       0       0       0       0       0
  2418 ;;Total ram usage:        2 bytes
  2419 ;; Hardware stack levels used:    1
  2420 ;; Hardware stack levels required when called:    5
  2421 ;; This function calls:
  2422 ;;		_USBCheckBusStatus
  2423 ;;		_USBCtrlTrfInHandler
  2424 ;;		_USBCtrlTrfSetupHandler
  2425 ;;		_USBProtocolResetHandler
  2426 ;;		_USBSuspend
  2427 ;;		_USBWakeFromSuspend
  2428 ;; This function is called by:
  2429 ;;		_ProcessIO
  2430 ;;		_BootMain
  2431 ;; This function uses a non-reentrant model
  2432 ;;
  2433                           
  2434                           	psect	text6
  2435  00119A                     __ptext6:
  2436                           	opt stack 0
  2437  00119A                     _USBDeviceTasks:
  2438                           	opt stack 24
  2439                           
  2440                           ;usb_device.c: 466: static volatile BDT* pBDTEntry;
  2441                           ;usb_device.c: 467: static uint8_t i;
  2442                           ;usb_device.c: 470: USBCheckBusStatus();
  2443                           
  2444                           ; BSR set to: 0
  2445                           ;incstack = 0
  2446  00119A  ECBB  F00E         	call	_USBCheckBusStatus	;wreg free
  2447                           
  2448                           ;usb_device.c: 475: if(usb_device_state == 0) return;
  2449  00119E  663A               	tstfsz	_usb_device_state,c
  2450  0011A0  D001               	goto	l463
  2451  0011A2  D071               	goto	l464
  2452  0011A4                     l463:
  2453                           
  2454                           ;usb_device.c: 481: if(UIRbits.ACTVIF) USBWakeFromSuspend();
  2455  0011A4  B468               	btfsc	3944,2,c	;volatile
  2456  0011A6  EC9D  F00E         	call	_USBWakeFromSuspend	;wreg free
  2457                           
  2458                           ;usb_device.c: 486: if(UCONbits.SUSPND == 1) return;
  2459  0011AA  B26D               	btfsc	3949,1,c	;volatile
  2460  0011AC  D06C               	goto	l464
  2461                           
  2462                           ;usb_device.c: 494: if(UIRbits.URSTIF) USBProtocolResetHandler();
  2463  0011AE  B068               	btfsc	3944,0,c	;volatile
  2464  0011B0  EC6A  F00C         	call	_USBProtocolResetHandler	;wreg free
  2465                           
  2466                           ;usb_device.c: 499: if(UIRbits.IDLEIF) USBSuspend();
  2467  0011B4  B868               	btfsc	3944,4,c	;volatile
  2468  0011B6  EC62  F00E         	call	_USBSuspend	;wreg free
  2469                           
  2470                           ;usb_device.c: 516: if(usb_device_state < 3) return;
  2471  0011BA  0E03               	movlw	3
  2472  0011BC  5C3A               	subwf	_usb_device_state,w,c
  2473  0011BE  A0D8               	btfss	status,0,c
  2474  0011C0  D062               	goto	l464
  2475                           
  2476                           ;usb_device.c: 521: for(bTRNIFCount = 0; bTRNIFCount < 4; bTRNIFCount++)
  2477  0011C2  6E50               	movwf	??_USBDeviceTasks& (0+255),c
  2478  0011C4  0E00               	movlw	0
  2479  0011C6  6E35               	movwf	_bTRNIFCount,c
  2480  0011C8  5050               	movf	??_USBDeviceTasks& (0+255),w,c
  2481  0011CA  D05A               	goto	L12
  2482  0011CC                     l470:
  2483                           
  2484                           ;usb_device.c: 522: {
  2485                           ;usb_device.c: 523: if(UIRbits.TRNIF)
  2486  0011CC  A668               	btfss	3944,3,c	;volatile
  2487  0011CE  D05B               	goto	l464
  2488                           
  2489                           ;usb_device.c: 524: {
  2490                           ;usb_device.c: 526: USTATSave = USTAT;
  2491  0011D0  CF6C F034          	movff	3948,_USTATSave	;volatile
  2492                           
  2493                           ;usb_device.c: 527: if((USTAT & 0x7C) == ((0x00<<3)|(0<<2)))
  2494  0011D4  CF6C F050          	movff	3948,??_USBDeviceTasks	;volatile
  2495  0011D8  0E7C               	movlw	124
  2496  0011DA  1650               	andwf	??_USBDeviceTasks,f,c
  2497  0011DC  A4D8               	btfss	status,2,c
  2498  0011DE  D046               	goto	l3199
  2499                           
  2500                           ;usb_device.c: 528: {
  2501                           ;usb_device.c: 530: if(USTATbits.PPBI == 0)
  2502  0011E0  B26C               	btfsc	3948,1,c	;volatile
  2503  0011E2  D006               	goto	l3177
  2504                           
  2505                           ;usb_device.c: 531: {
  2506                           ;usb_device.c: 533: pBDTEntry = &ep0BoEven;
  2507  0011E4  0104               	movlb	4	; () banked
  2508  0011E6  0E04               	movlw	4	;volatile
  2509  0011E8  6E1D               	movwf	USBDeviceTasks@pBDTEntry+1,c
  2510  0011EA  0104               	movlb	4	; () banked
  2511  0011EC  0E00               	movlw	0	;volatile
  2512  0011EE  D005               	goto	L11
  2513  0011F0                     l3177:
  2514                           
  2515                           ;usb_device.c: 535: else
  2516                           ;usb_device.c: 536: {
  2517                           ;usb_device.c: 538: pBDTEntry = &ep0BoOdd;
  2518  0011F0  0104               	movlb	4	; () banked
  2519  0011F2  0E04               	movlw	4	;volatile
  2520  0011F4  6E1D               	movwf	USBDeviceTasks@pBDTEntry+1,c
  2521  0011F6  0104               	movlb	4	; () banked
  2522  0011F8  0E04               	movlw	4	;volatile
  2523  0011FA                     L11:
  2524  0011FA  6E1C               	movwf	USBDeviceTasks@pBDTEntry,c
  2525                           
  2526                           ; BSR set to: 4
  2527                           ;usb_device.c: 539: }
  2528                           ;usb_device.c: 542: UIRbits.TRNIF = 0;
  2529                           
  2530                           ; BSR set to: 4
  2531  0011FC  9668               	bcf	3944,3,c	;volatile
  2532                           
  2533                           ; BSR set to: 4
  2534                           ;usb_device.c: 545: if(pBDTEntry->Stat.PID == 0b00001101)
  2535  0011FE  C01C  FFD9         	movff	USBDeviceTasks@pBDTEntry,fsr2l
  2536  001202  C01D  FFDA         	movff	USBDeviceTasks@pBDTEntry+1,fsr2h
  2537  001206  30DF               	rrcf	indf2,w,c
  2538  001208  32E8               	rrcf	wreg,f,c
  2539  00120A  0B0F               	andlw	15
  2540  00120C  0A0D               	xorlw	13
  2541  00120E  A4D8               	btfss	status,2,c
  2542  001210  D036               	goto	l3205
  2543                           
  2544                           ; BSR set to: 4
  2545                           ;usb_device.c: 546: {
  2546                           ;usb_device.c: 549: for(i = 0; i < sizeof(CTRL_TRF_SETUP); i++)
  2547  001212  6E50               	movwf	??_USBDeviceTasks& (0+255),c
  2548  001214  0E00               	movlw	0
  2549  001216  6E27               	movwf	USBDeviceTasks@i,c
  2550  001218  5050               	movf	??_USBDeviceTasks& (0+255),w,c
  2551  00121A  D022               	goto	L13
  2552  00121C                     l3189:
  2553                           
  2554                           ;usb_device.c: 550: {
  2555                           ;usb_device.c: 551: SetupPkt._byte[i] = *pBDTEntry->ADR++;
  2556  00121C  EE20 F002          	lfsr	2,2
  2557  001220  501C               	movf	USBDeviceTasks@pBDTEntry,w,c
  2558  001222  26D9               	addwf	fsr2l,f,c
  2559  001224  501D               	movf	USBDeviceTasks@pBDTEntry+1,w,c
  2560  001226  22DA               	addwfc	fsr2h,f,c
  2561  001228  CFDE F050          	movff	postinc2,??_USBDeviceTasks
  2562  00122C  CFDD F051          	movff	postdec2,??_USBDeviceTasks+1
  2563  001230  C050  FFD9         	movff	??_USBDeviceTasks,fsr2l
  2564  001234  C051  FFDA         	movff	??_USBDeviceTasks+1,fsr2h
  2565  001238  5027               	movf	USBDeviceTasks@i,w,c
  2566  00123A  0D01               	mullw	1
  2567  00123C  0E3C               	movlw	low _SetupPkt
  2568  00123E  24F3               	addwf	prodl,w,c
  2569  001240  6EE1               	movwf	fsr1l,c
  2570  001242  0E00               	movlw	high _SetupPkt
  2571  001244  20F4               	addwfc	prodh,w,c
  2572  001246  6EE2               	movwf	fsr1h,c
  2573  001248  CFDF FFE7          	movff	indf2,indf1
  2574  00124C  EE20 F002          	lfsr	2,2
  2575  001250  501C               	movf	USBDeviceTasks@pBDTEntry,w,c
  2576  001252  26D9               	addwf	fsr2l,f,c
  2577  001254  501D               	movf	USBDeviceTasks@pBDTEntry+1,w,c
  2578  001256  22DA               	addwfc	fsr2h,f,c
  2579  001258  2ADE               	incf	postinc2,f,c
  2580  00125A  0E00               	movlw	0
  2581  00125C  22DD               	addwfc	postdec2,f,c
  2582  00125E  2A27               	incf	USBDeviceTasks@i,f,c
  2583  001260                     L13:
  2584  001260  0E07               	movlw	7
  2585  001262  6427               	cpfsgt	USBDeviceTasks@i,c
  2586  001264  D7DB               	goto	l3189
  2587                           
  2588                           ;usb_device.c: 552: }
  2589                           ;usb_device.c: 556: USBCtrlTrfSetupHandler();
  2590  001266  EC0F  F00D         	call	_USBCtrlTrfSetupHandler	;wreg free
  2591                           
  2592                           ;usb_device.c: 557: }
  2593  00126A  D009               	goto	l3205
  2594  00126C                     l3199:
  2595                           
  2596                           ;usb_device.c: 564: else if(USTAT == ((0x00<<3)|(1<<2)))
  2597  00126C  506C               	movf	3948,w,c	;volatile
  2598  00126E  0A04               	xorlw	4
  2599  001270  A4D8               	btfss	status,2,c
  2600  001272  D004               	goto	l481
  2601                           
  2602                           ;usb_device.c: 565: {
  2603                           ;usb_device.c: 567: UIRbits.TRNIF = 0;
  2604  001274  9668               	bcf	3944,3,c	;volatile
  2605                           
  2606                           ;usb_device.c: 568: USBCtrlTrfInHandler();
  2607  001276  ECC8  F00D         	call	_USBCtrlTrfInHandler	;wreg free
  2608                           
  2609                           ;usb_device.c: 569: }
  2610  00127A  D001               	goto	l3205
  2611  00127C                     l481:
  2612                           
  2613                           ;usb_device.c: 570: else
  2614                           ;usb_device.c: 571: {
  2615                           ;usb_device.c: 576: UIRbits.TRNIF = 0;
  2616  00127C  9668               	bcf	3944,3,c	;volatile
  2617  00127E                     l3205:
  2618  00127E  2A35               	incf	_bTRNIFCount,f,c
  2619  001280                     L12:
  2620  001280  0E03               	movlw	3
  2621  001282  6435               	cpfsgt	_bTRNIFCount,c
  2622  001284  D7A3               	goto	l470
  2623  001286                     l464:
  2624  001286  0012               	return	
  2625  001288                     __end_of_USBDeviceTasks:
  2626                           	opt stack 0
  2627                           stkptr	equ	0xFFC
  2628                           tblptru	equ	0xFF8
  2629                           tblptrh	equ	0xFF7
  2630                           tblptrl	equ	0xFF6
  2631                           tablat	equ	0xFF5
  2632                           prodh	equ	0xFF4
  2633                           prodl	equ	0xFF3
  2634                           intcon	equ	0xFF2
  2635                           postinc0	equ	0xFEE
  2636                           wreg	equ	0xFE8
  2637                           indf1	equ	0xFE7
  2638                           fsr1h	equ	0xFE2
  2639                           fsr1l	equ	0xFE1
  2640                           indf2	equ	0xFDF
  2641                           postinc2	equ	0xFDE
  2642                           postdec2	equ	0xFDD
  2643                           fsr2h	equ	0xFDA
  2644                           fsr2l	equ	0xFD9
  2645                           status	equ	0xFD8
  2646                           
  2647 ;; *************** function _USBWakeFromSuspend *****************
  2648 ;; Defined at:
  2649 ;;		line 702 in file "../src/usb_device.c"
  2650 ;; Parameters:    Size  Location     Type
  2651 ;;		None
  2652 ;; Auto vars:     Size  Location     Type
  2653 ;;		None
  2654 ;; Return value:  Size  Location     Type
  2655 ;;		None               void
  2656 ;; Registers used:
  2657 ;;		wreg, status,2, status,0, cstack
  2658 ;; Tracked objects:
  2659 ;;		On entry : 0/0
  2660 ;;		On exit  : 0/0
  2661 ;;		Unchanged: 0/0
  2662 ;; Data sizes:     COMRAM   BANK0   BANK1   BANK2   BANK3  BANK4h   BANK5   BANK6   BANK7
  2663 ;;      Params:         0       0       0       0       0       0       0       0       0
  2664 ;;      Locals:         0       0       0       0       0       0       0       0       0
  2665 ;;      Temps:          0       0       0       0       0       0       0       0       0
  2666 ;;      Totals:         0       0       0       0       0       0       0       0       0
  2667 ;;Total ram usage:        0 bytes
  2668 ;; Hardware stack levels used:    1
  2669 ;; Hardware stack levels required when called:    3
  2670 ;; This function calls:
  2671 ;;		_USBCBWakeFromSuspend
  2672 ;; This function is called by:
  2673 ;;		_USBDeviceTasks
  2674 ;; This function uses a non-reentrant model
  2675 ;;
  2676                           
  2677                           	psect	text7
  2678  001D3A                     __ptext7:
  2679                           	opt stack 0
  2680  001D3A                     _USBWakeFromSuspend:
  2681                           	opt stack 25
  2682                           
  2683                           ;usb_device.c: 707: USBCBWakeFromSuspend();
  2684                           
  2685                           ;incstack = 0
  2686  001D3A  ECA6  F00E         	call	_USBCBWakeFromSuspend	;wreg free
  2687                           
  2688                           ;usb_device.c: 710: UCONbits.SUSPND = 0;
  2689  001D3E  926D               	bcf	3949,1,c	;volatile
  2690                           
  2691                           ;usb_device.c: 711: UIEbits.ACTVIE = 0;
  2692  001D40  9469               	bcf	3945,2,c	;volatile
  2693                           
  2694                           ;usb_device.c: 712: while(UIRbits.ACTVIF){UIRbits.ACTVIF = 0;}
  2695  001D42  D001               	goto	l491
  2696  001D44                     l492:
  2697  001D44  9468               	bcf	3944,2,c	;volatile
  2698  001D46                     l491:
  2699  001D46  A468               	btfss	3944,2,c	;volatile
  2700  001D48  0012               	return	
  2701  001D4A  D7FC               	goto	l492
  2702  001D4C                     __end_of_USBWakeFromSuspend:
  2703                           	opt stack 0
  2704                           stkptr	equ	0xFFC
  2705                           tblptru	equ	0xFF8
  2706                           tblptrh	equ	0xFF7
  2707                           tblptrl	equ	0xFF6
  2708                           tablat	equ	0xFF5
  2709                           prodh	equ	0xFF4
  2710                           prodl	equ	0xFF3
  2711                           intcon	equ	0xFF2
  2712                           postinc0	equ	0xFEE
  2713                           wreg	equ	0xFE8
  2714                           indf1	equ	0xFE7
  2715                           fsr1h	equ	0xFE2
  2716                           fsr1l	equ	0xFE1
  2717                           indf2	equ	0xFDF
  2718                           postinc2	equ	0xFDE
  2719                           postdec2	equ	0xFDD
  2720                           fsr2h	equ	0xFDA
  2721                           fsr2l	equ	0xFD9
  2722                           status	equ	0xFD8
  2723                           
  2724 ;; *************** function _USBCBWakeFromSuspend *****************
  2725 ;; Defined at:
  2726 ;;		line 770 in file "../src/main.c"
  2727 ;; Parameters:    Size  Location     Type
  2728 ;;		None
  2729 ;; Auto vars:     Size  Location     Type
  2730 ;;		None
  2731 ;; Return value:  Size  Location     Type
  2732 ;;		None               void
  2733 ;; Registers used:
  2734 ;;		wreg, status,2, status,0, cstack
  2735 ;; Tracked objects:
  2736 ;;		On entry : 0/0
  2737 ;;		On exit  : 0/0
  2738 ;;		Unchanged: 0/0
  2739 ;; Data sizes:     COMRAM   BANK0   BANK1   BANK2   BANK3  BANK4h   BANK5   BANK6   BANK7
  2740 ;;      Params:         0       0       0       0       0       0       0       0       0
  2741 ;;      Locals:         0       0       0       0       0       0       0       0       0
  2742 ;;      Temps:          0       0       0       0       0       0       0       0       0
  2743 ;;      Totals:         0       0       0       0       0       0       0       0       0
  2744 ;;Total ram usage:        0 bytes
  2745 ;; Hardware stack levels used:    1
  2746 ;; Hardware stack levels required when called:    2
  2747 ;; This function calls:
  2748 ;;		_DelayRoutine
  2749 ;; This function is called by:
  2750 ;;		_USBWakeFromSuspend
  2751 ;; This function uses a non-reentrant model
  2752 ;;
  2753                           
  2754                           	psect	text8
  2755  001D4C                     __ptext8:
  2756                           	opt stack 0
  2757  001D4C                     _USBCBWakeFromSuspend:
  2758                           	opt stack 25
  2759                           
  2760                           ;main.c: 776: DelayRoutine(0x300);
  2761                           
  2762                           ;incstack = 0
  2763  001D4C  0E03               	movlw	3
  2764  001D4E  6E4B               	movwf	DelayRoutine@DelayAmount+1,c
  2765  001D50  0E00               	movlw	0
  2766  001D52  6E4A               	movwf	DelayRoutine@DelayAmount,c
  2767  001D54  EC7E  F00E         	call	_DelayRoutine	;wreg free
  2768  001D58  0012               	return	
  2769  001D5A                     __end_of_USBCBWakeFromSuspend:
  2770                           	opt stack 0
  2771                           stkptr	equ	0xFFC
  2772                           tblptru	equ	0xFF8
  2773                           tblptrh	equ	0xFF7
  2774                           tblptrl	equ	0xFF6
  2775                           tablat	equ	0xFF5
  2776                           prodh	equ	0xFF4
  2777                           prodl	equ	0xFF3
  2778                           intcon	equ	0xFF2
  2779                           postinc0	equ	0xFEE
  2780                           wreg	equ	0xFE8
  2781                           indf1	equ	0xFE7
  2782                           fsr1h	equ	0xFE2
  2783                           fsr1l	equ	0xFE1
  2784                           indf2	equ	0xFDF
  2785                           postinc2	equ	0xFDE
  2786                           postdec2	equ	0xFDD
  2787                           fsr2h	equ	0xFDA
  2788                           fsr2l	equ	0xFD9
  2789                           status	equ	0xFD8
  2790                           
  2791 ;; *************** function _USBSuspend *****************
  2792 ;; Defined at:
  2793 ;;		line 610 in file "../src/usb_device.c"
  2794 ;; Parameters:    Size  Location     Type
  2795 ;;		None
  2796 ;; Auto vars:     Size  Location     Type
  2797 ;;		None
  2798 ;; Return value:  Size  Location     Type
  2799 ;;		None               void
  2800 ;; Registers used:
  2801 ;;		wreg, status,2, status,0, cstack
  2802 ;; Tracked objects:
  2803 ;;		On entry : 0/0
  2804 ;;		On exit  : 0/0
  2805 ;;		Unchanged: 0/0
  2806 ;; Data sizes:     COMRAM   BANK0   BANK1   BANK2   BANK3  BANK4h   BANK5   BANK6   BANK7
  2807 ;;      Params:         0       0       0       0       0       0       0       0       0
  2808 ;;      Locals:         0       0       0       0       0       0       0       0       0
  2809 ;;      Temps:          0       0       0       0       0       0       0       0       0
  2810 ;;      Totals:         0       0       0       0       0       0       0       0       0
  2811 ;;Total ram usage:        0 bytes
  2812 ;; Hardware stack levels used:    1
  2813 ;; Hardware stack levels required when called:    1
  2814 ;; This function calls:
  2815 ;;		_USBCBSuspend
  2816 ;; This function is called by:
  2817 ;;		_USBDeviceTasks
  2818 ;; This function uses a non-reentrant model
  2819 ;;
  2820                           
  2821                           	psect	text9
  2822  001CC4                     __ptext9:
  2823                           	opt stack 0
  2824  001CC4                     _USBSuspend:
  2825                           	opt stack 27
  2826                           
  2827                           ;usb_device.c: 612: static unsigned char UIESave;
  2828                           ;usb_device.c: 647: UIESave = UIE;
  2829                           
  2830                           ;incstack = 0
  2831  001CC4  CF69 F029          	movff	3945,USBSuspend@UIESave	;volatile
  2832                           
  2833                           ;usb_device.c: 648: UIE = 0b00000100;
  2834  001CC8  0E04               	movlw	4
  2835  001CCA  6E69               	movwf	3945,c	;volatile
  2836                           
  2837                           ;usb_device.c: 652: UIRbits.IDLEIF = 0;
  2838  001CCC  9868               	bcf	3944,4,c	;volatile
  2839                           
  2840                           ;usb_device.c: 653: UCONbits.SUSPND = 1;
  2841  001CCE  826D               	bsf	3949,1,c	;volatile
  2842                           
  2843                           ;usb_device.c: 660: PIR2bits.USBIF = 0;
  2844  001CD0  9AA1               	bcf	4001,5,c	;volatile
  2845                           
  2846                           ;usb_device.c: 664: PIE2bits.USBIE = 1;
  2847  001CD2  8AA0               	bsf	4000,5,c	;volatile
  2848                           
  2849                           ;usb_device.c: 673: USBCBSuspend();
  2850  001CD4  ECAD  F00E         	call	_USBCBSuspend	;wreg free
  2851                           
  2852                           ;usb_device.c: 680: PIE2bits.USBIE = 0;
  2853  001CD8  9AA0               	bcf	4000,5,c	;volatile
  2854                           
  2855                           ;usb_device.c: 681: UIE |= UIESave;
  2856  001CDA  5029               	movf	USBSuspend@UIESave,w,c
  2857  001CDC  1269               	iorwf	3945,f,c	;volatile
  2858  001CDE  0012               	return	
  2859  001CE0                     __end_of_USBSuspend:
  2860                           	opt stack 0
  2861                           stkptr	equ	0xFFC
  2862                           tblptru	equ	0xFF8
  2863                           tblptrh	equ	0xFF7
  2864                           tblptrl	equ	0xFF6
  2865                           tablat	equ	0xFF5
  2866                           prodh	equ	0xFF4
  2867                           prodl	equ	0xFF3
  2868                           intcon	equ	0xFF2
  2869                           postinc0	equ	0xFEE
  2870                           wreg	equ	0xFE8
  2871                           indf1	equ	0xFE7
  2872                           fsr1h	equ	0xFE2
  2873                           fsr1l	equ	0xFE1
  2874                           indf2	equ	0xFDF
  2875                           postinc2	equ	0xFDE
  2876                           postdec2	equ	0xFDD
  2877                           fsr2h	equ	0xFDA
  2878                           fsr2l	equ	0xFD9
  2879                           status	equ	0xFD8
  2880                           
  2881 ;; *************** function _USBCBSuspend *****************
  2882 ;; Defined at:
  2883 ;;		line 806 in file "../src/main.c"
  2884 ;; Parameters:    Size  Location     Type
  2885 ;;		None
  2886 ;; Auto vars:     Size  Location     Type
  2887 ;;		None
  2888 ;; Return value:  Size  Location     Type
  2889 ;;		None               void
  2890 ;; Registers used:
  2891 ;;		None
  2892 ;; Tracked objects:
  2893 ;;		On entry : 0/0
  2894 ;;		On exit  : 0/0
  2895 ;;		Unchanged: 0/0
  2896 ;; Data sizes:     COMRAM   BANK0   BANK1   BANK2   BANK3  BANK4h   BANK5   BANK6   BANK7
  2897 ;;      Params:         0       0       0       0       0       0       0       0       0
  2898 ;;      Locals:         0       0       0       0       0       0       0       0       0
  2899 ;;      Temps:          0       0       0       0       0       0       0       0       0
  2900 ;;      Totals:         0       0       0       0       0       0       0       0       0
  2901 ;;Total ram usage:        0 bytes
  2902 ;; Hardware stack levels used:    1
  2903 ;; This function calls:
  2904 ;;		Nothing
  2905 ;; This function is called by:
  2906 ;;		_USBSuspend
  2907 ;; This function uses a non-reentrant model
  2908 ;;
  2909                           
  2910                           	psect	text10
  2911  001D5A                     __ptext10:
  2912                           	opt stack 0
  2913  001D5A                     _USBCBSuspend:
  2914                           	opt stack 27
  2915                           
  2916                           ;main.c: 810: LATDbits.LATD0 = 0;
  2917                           
  2918                           ;incstack = 0
  2919  001D5A  908C               	bcf	3980,0,c	;volatile
  2920  001D5C                     l271:
  2921  001D5C  0003               	sleep		;# 
  2922  001D5E  BAA1               	btfsc	4001,5,c	;volatile
  2923  001D60  D002               	goto	l275
  2924  001D62  A6D0               	btfss	4048,3,c	;volatile
  2925  001D64  D7FB               	goto	l271
  2926  001D66                     l275:
  2927  001D66  0012               	return	
  2928  001D68                     __end_of_USBCBSuspend:
  2929                           	opt stack 0
  2930                           stkptr	equ	0xFFC
  2931                           tblptru	equ	0xFF8
  2932                           tblptrh	equ	0xFF7
  2933                           tblptrl	equ	0xFF6
  2934                           tablat	equ	0xFF5
  2935                           prodh	equ	0xFF4
  2936                           prodl	equ	0xFF3
  2937                           intcon	equ	0xFF2
  2938                           postinc0	equ	0xFEE
  2939                           wreg	equ	0xFE8
  2940                           indf1	equ	0xFE7
  2941                           fsr1h	equ	0xFE2
  2942                           fsr1l	equ	0xFE1
  2943                           indf2	equ	0xFDF
  2944                           postinc2	equ	0xFDE
  2945                           postdec2	equ	0xFDD
  2946                           fsr2h	equ	0xFDA
  2947                           fsr2l	equ	0xFD9
  2948                           status	equ	0xFD8
  2949                           
  2950 ;; *************** function _USBCtrlTrfSetupHandler *****************
  2951 ;; Defined at:
  2952 ;;		line 813 in file "../src/usb_device.c"
  2953 ;; Parameters:    Size  Location     Type
  2954 ;;		None
  2955 ;; Auto vars:     Size  Location     Type
  2956 ;;		None
  2957 ;; Return value:  Size  Location     Type
  2958 ;;		None               void
  2959 ;; Registers used:
  2960 ;;		wreg, fsr1l, fsr1h, fsr2l, fsr2h, status,2, status,0, tblptrl, tblptrh, tblptru, prodl, prodh, cstack
  2961 ;; Tracked objects:
  2962 ;;		On entry : 0/0
  2963 ;;		On exit  : 0/0
  2964 ;;		Unchanged: 0/0
  2965 ;; Data sizes:     COMRAM   BANK0   BANK1   BANK2   BANK3  BANK4h   BANK5   BANK6   BANK7
  2966 ;;      Params:         0       0       0       0       0       0       0       0       0
  2967 ;;      Locals:         0       0       0       0       0       0       0       0       0
  2968 ;;      Temps:          1       0       0       0       0       0       0       0       0
  2969 ;;      Totals:         1       0       0       0       0       0       0       0       0
  2970 ;;Total ram usage:        1 bytes
  2971 ;; Hardware stack levels used:    1
  2972 ;; Hardware stack levels required when called:    4
  2973 ;; This function calls:
  2974 ;;		_USBCBCheckOtherReq
  2975 ;;		_USBCheckStdRequest
  2976 ;;		_USBCtrlEPServiceComplete
  2977 ;; This function is called by:
  2978 ;;		_USBDeviceTasks
  2979 ;; This function uses a non-reentrant model
  2980 ;;
  2981                           
  2982                           	psect	text11
  2983  001A1E                     __ptext11:
  2984                           	opt stack 0
  2985  001A1E                     _USBCtrlTrfSetupHandler:
  2986                           	opt stack 24
  2987                           
  2988                           ;usb_device.c: 820: ep0Bi.Stat._byte = 0x00;
  2989                           
  2990                           ;incstack = 0
  2991  001A1E  0E00               	movlw	0
  2992  001A20  0104               	movlb	4	; () banked
  2993  001A22  0104               	movlb	4	; () banked
  2994  001A24  6F08               	movwf	8,b	;volatile
  2995                           
  2996                           ; BSR set to: 4
  2997                           ;usb_device.c: 821: short_pkt_status = 0;
  2998  001A26  6E4F               	movwf	??_USBCtrlTrfSetupHandler& (0+255),c
  2999  001A28  0E00               	movlw	0
  3000  001A2A  6E39               	movwf	_short_pkt_status,c
  3001  001A2C  504F               	movf	??_USBCtrlTrfSetupHandler& (0+255),w,c
  3002                           
  3003                           ; BSR set to: 4
  3004                           ;usb_device.c: 826: if(ep0BoEven.Stat.UOWN == 1)
  3005  001A2E  0104               	movlb	4	; () banked
  3006  001A30  AF00               	btfss	0,7,b	;volatile
  3007  001A32  D008               	goto	l3121
  3008                           
  3009                           ; BSR set to: 4
  3010                           ;usb_device.c: 827: {
  3011                           ;usb_device.c: 828: ep0BoEven.Stat._byte = 0x00;
  3012  001A34  0E00               	movlw	0
  3013  001A36  0104               	movlb	4	; () banked
  3014  001A38  0104               	movlb	4	; () banked
  3015  001A3A  6F00               	movwf	0,b	;volatile
  3016                           
  3017                           ; BSR set to: 4
  3018                           ;usb_device.c: 829: EP0OutOddNeedsArmingNext = 0;
  3019  001A3C  6E4F               	movwf	??_USBCtrlTrfSetupHandler& (0+255),c
  3020  001A3E  0E00               	movlw	0
  3021  001A40  6E33               	movwf	_EP0OutOddNeedsArmingNext,c
  3022  001A42  504F               	movf	??_USBCtrlTrfSetupHandler& (0+255),w,c
  3023  001A44                     l3121:
  3024                           
  3025                           ; BSR set to: 4
  3026                           ;usb_device.c: 830: }
  3027                           ;usb_device.c: 831: if(ep0BoOdd.Stat.UOWN == 1)
  3028  001A44  0104               	movlb	4	; () banked
  3029  001A46  AF04               	btfss	4,7,b	;volatile
  3030  001A48  D008               	goto	l3127
  3031                           
  3032                           ; BSR set to: 4
  3033                           ;usb_device.c: 832: {
  3034                           ;usb_device.c: 833: ep0BoOdd.Stat._byte = 0x00;
  3035  001A4A  0E00               	movlw	0
  3036  001A4C  0104               	movlb	4	; () banked
  3037  001A4E  0104               	movlb	4	; () banked
  3038  001A50  6F04               	movwf	4,b	;volatile
  3039                           
  3040                           ; BSR set to: 4
  3041                           ;usb_device.c: 834: EP0OutOddNeedsArmingNext = 1;
  3042  001A52  6E4F               	movwf	??_USBCtrlTrfSetupHandler& (0+255),c
  3043  001A54  0E01               	movlw	1
  3044  001A56  6E33               	movwf	_EP0OutOddNeedsArmingNext,c
  3045  001A58  504F               	movf	??_USBCtrlTrfSetupHandler& (0+255),w,c
  3046  001A5A                     l3127:
  3047                           
  3048                           ; BSR set to: 4
  3049                           ;usb_device.c: 835: }
  3050                           ;usb_device.c: 836: ctrl_trf_state = 0;
  3051  001A5A  6E4F               	movwf	??_USBCtrlTrfSetupHandler& (0+255),c
  3052  001A5C  0E00               	movlw	0
  3053  001A5E  6E37               	movwf	_ctrl_trf_state,c
  3054  001A60  504F               	movf	??_USBCtrlTrfSetupHandler& (0+255),w,c
  3055                           
  3056                           ; BSR set to: 4
  3057                           ;usb_device.c: 837: ctrl_trf_session_owner = 0;
  3058  001A62  6E4F               	movwf	??_USBCtrlTrfSetupHandler& (0+255),c
  3059  001A64  0E00               	movlw	0
  3060  001A66  6E36               	movwf	_ctrl_trf_session_owner,c
  3061  001A68  504F               	movf	??_USBCtrlTrfSetupHandler& (0+255),w,c
  3062                           
  3063                           ; BSR set to: 4
  3064                           ;usb_device.c: 838: wCount.Val = 0;
  3065  001A6A  0E00               	movlw	0
  3066  001A6C  6E45               	movwf	_wCount+1,c
  3067  001A6E  0E00               	movlw	0
  3068  001A70  6E44               	movwf	_wCount,c
  3069                           
  3070                           ; BSR set to: 4
  3071                           ;usb_device.c: 839: UCONbits.PKTDIS = 0;
  3072  001A72  986D               	bcf	3949,4,c	;volatile
  3073                           
  3074                           ; BSR set to: 4
  3075                           ;usb_device.c: 845: USBCheckStdRequest();
  3076  001A74  ECB9  F009         	call	_USBCheckStdRequest	;wreg free
  3077                           
  3078                           ;usb_device.c: 846: USBCBCheckOtherReq();
  3079  001A78  ECC2  F00E         	call	_USBCBCheckOtherReq	;wreg free
  3080                           
  3081                           ;usb_device.c: 849: USBCtrlEPServiceComplete();
  3082  001A7C  EC44  F009         	call	_USBCtrlEPServiceComplete	;wreg free
  3083  001A80  0012               	return	
  3084  001A82                     __end_of_USBCtrlTrfSetupHandler:
  3085                           	opt stack 0
  3086                           stkptr	equ	0xFFC
  3087                           tblptru	equ	0xFF8
  3088                           tblptrh	equ	0xFF7
  3089                           tblptrl	equ	0xFF6
  3090                           tablat	equ	0xFF5
  3091                           prodh	equ	0xFF4
  3092                           prodl	equ	0xFF3
  3093                           intcon	equ	0xFF2
  3094                           postinc0	equ	0xFEE
  3095                           wreg	equ	0xFE8
  3096                           indf1	equ	0xFE7
  3097                           fsr1h	equ	0xFE2
  3098                           fsr1l	equ	0xFE1
  3099                           indf2	equ	0xFDF
  3100                           postinc2	equ	0xFDE
  3101                           postdec2	equ	0xFDD
  3102                           fsr2h	equ	0xFDA
  3103                           fsr2l	equ	0xFD9
  3104                           status	equ	0xFD8
  3105                           
  3106 ;; *************** function _USBCtrlEPServiceComplete *****************
  3107 ;; Defined at:
  3108 ;;		line 1170 in file "../src/usb_device.c"
  3109 ;; Parameters:    Size  Location     Type
  3110 ;;		None
  3111 ;; Auto vars:     Size  Location     Type
  3112 ;;		None
  3113 ;; Return value:  Size  Location     Type
  3114 ;;		None               void
  3115 ;; Registers used:
  3116 ;;		wreg, fsr1l, fsr1h, fsr2l, fsr2h, status,2, status,0, tblptrl, tblptrh, tblptru, cstack
  3117 ;; Tracked objects:
  3118 ;;		On entry : 0/0
  3119 ;;		On exit  : 0/0
  3120 ;;		Unchanged: 0/0
  3121 ;; Data sizes:     COMRAM   BANK0   BANK1   BANK2   BANK3  BANK4h   BANK5   BANK6   BANK7
  3122 ;;      Params:         0       0       0       0       0       0       0       0       0
  3123 ;;      Locals:         0       0       0       0       0       0       0       0       0
  3124 ;;      Temps:          1       0       0       0       0       0       0       0       0
  3125 ;;      Totals:         1       0       0       0       0       0       0       0       0
  3126 ;;Total ram usage:        1 bytes
  3127 ;; Hardware stack levels used:    1
  3128 ;; Hardware stack levels required when called:    1
  3129 ;; This function calls:
  3130 ;;		_LoadBDTandSetUOWN
  3131 ;;		_USBCtrlTrfTxService
  3132 ;; This function is called by:
  3133 ;;		_USBCtrlTrfSetupHandler
  3134 ;; This function uses a non-reentrant model
  3135 ;;
  3136                           
  3137                           	psect	text12
  3138  001288                     __ptext12:
  3139                           	opt stack 0
  3140  001288                     _USBCtrlEPServiceComplete:
  3141                           	opt stack 26
  3142                           
  3143                           ;usb_device.c: 1174: if(ctrl_trf_session_owner == 0)
  3144                           
  3145                           ;incstack = 0
  3146  001288  6636               	tstfsz	_ctrl_trf_session_owner,c
  3147  00128A  D01C               	goto	l537
  3148                           
  3149                           ;usb_device.c: 1175: {
  3150                           ;usb_device.c: 1179: ep0Bi.Stat._byte = 0x04;
  3151  00128C  0E04               	movlw	4
  3152  00128E  0104               	movlb	4	; () banked
  3153  001290  0104               	movlb	4	; () banked
  3154  001292  6F08               	movwf	8,b	;volatile
  3155                           
  3156                           ; BSR set to: 4
  3157                           ;usb_device.c: 1180: ep0Bi.Stat._byte |= 0x80;
  3158  001294  0104               	movlb	4	; () banked
  3159  001296  0104               	movlb	4	; () banked
  3160  001298  8F08               	bsf	8,7,b	;volatile
  3161                           
  3162                           ; BSR set to: 4
  3163                           ;usb_device.c: 1181: TempBDT.Stat._byte = 0x04;
  3164  00129A  6E4C               	movwf	??_USBCtrlEPServiceComplete& (0+255),c
  3165  00129C  0E04               	movlw	4
  3166  00129E  6E05               	movwf	_TempBDT,c
  3167  0012A0  504C               	movf	??_USBCtrlEPServiceComplete& (0+255),w,c
  3168                           
  3169                           ;usb_device.c: 1182: if(EP0OutOddNeedsArmingNext == 1)
  3170  0012A2  0433               	decf	_EP0OutOddNeedsArmingNext,w,c
  3171  0012A4  A4D8               	btfss	status,2,c
  3172  0012A6  D006               	goto	l2771
  3173                           
  3174                           ; BSR set to: 4
  3175                           ;usb_device.c: 1183: {
  3176                           ;usb_device.c: 1184: LoadBDTandSetUOWN(1);
  3177  0012A8  0E01               	movlw	1
  3178  0012AA  EC70  F00D         	call	_LoadBDTandSetUOWN
  3179                           
  3180                           ;usb_device.c: 1185: EP0OutOddNeedsArmingNext = 0;
  3181  0012AE  6E4C               	movwf	??_USBCtrlEPServiceComplete& (0+255),c
  3182  0012B0  0E00               	movlw	0
  3183  0012B2  D005               	goto	L14
  3184  0012B4                     l2771:
  3185                           
  3186                           ;usb_device.c: 1187: else
  3187                           ;usb_device.c: 1188: {
  3188                           ;usb_device.c: 1189: LoadBDTandSetUOWN(0);
  3189  0012B4  0E00               	movlw	0
  3190  0012B6  EC70  F00D         	call	_LoadBDTandSetUOWN
  3191                           
  3192                           ;usb_device.c: 1190: EP0OutOddNeedsArmingNext = 1;
  3193  0012BA  6E4C               	movwf	??_USBCtrlEPServiceComplete& (0+255),c
  3194  0012BC  0E01               	movlw	1
  3195  0012BE                     L14:
  3196  0012BE  6E33               	movwf	_EP0OutOddNeedsArmingNext,c
  3197  0012C0  504C               	movf	??_USBCtrlEPServiceComplete& (0+255),w,c
  3198  0012C2  D056               	goto	l548
  3199  0012C4                     l537:
  3200                           
  3201                           ;usb_device.c: 1193: else
  3202                           ;usb_device.c: 1194: {
  3203                           ;usb_device.c: 1195: if(SetupPkt.DataDir == 1)
  3204  0012C4  AE3C               	btfss	_SetupPkt,7,c
  3205  0012C6  D025               	goto	l2795
  3206                           
  3207                           ;usb_device.c: 1196: {
  3208                           ;usb_device.c: 1220: ctrl_trf_state = 1;
  3209  0012C8  6E4C               	movwf	??_USBCtrlEPServiceComplete& (0+255),c
  3210  0012CA  0E01               	movlw	1
  3211  0012CC  6E37               	movwf	_ctrl_trf_state,c
  3212  0012CE  504C               	movf	??_USBCtrlEPServiceComplete& (0+255),w,c
  3213                           
  3214                           ;usb_device.c: 1225: if(SetupPkt.wLength < wCount.Val)
  3215  0012D0  5044               	movf	_wCount,w,c
  3216  0012D2  5C42               	subwf	_SetupPkt+6,w,c
  3217  0012D4  5045               	movf	_wCount+1,w,c
  3218  0012D6  5843               	subwfb	_SetupPkt+7,w,c
  3219  0012D8  B0D8               	btfsc	status,0,c
  3220  0012DA  D004               	goto	l2781
  3221                           
  3222                           ;usb_device.c: 1226: wCount.Val = SetupPkt.wLength;
  3223  0012DC  C042  F044         	movff	_SetupPkt+6,_wCount
  3224  0012E0  C043  F045         	movff	_SetupPkt+7,_wCount+1
  3225  0012E4                     l2781:
  3226                           
  3227                           ;usb_device.c: 1230: USBCtrlTrfTxService();
  3228  0012E4  ECE4  F00A         	call	_USBCtrlTrfTxService	;wreg free
  3229                           
  3230                           ;usb_device.c: 1234: TempBDT.Stat._byte = 0x40 | 0x08;
  3231  0012E8  6E4C               	movwf	??_USBCtrlEPServiceComplete& (0+255),c
  3232  0012EA  0E48               	movlw	72
  3233  0012EC  6E05               	movwf	_TempBDT,c
  3234  0012EE  504C               	movf	??_USBCtrlEPServiceComplete& (0+255),w,c
  3235                           
  3236                           ;usb_device.c: 1235: LoadBDTandSetUOWN(1);
  3237  0012F0  0E01               	movlw	1
  3238  0012F2  EC70  F00D         	call	_LoadBDTandSetUOWN
  3239                           
  3240                           ;usb_device.c: 1236: LoadBDTandSetUOWN(0);
  3241  0012F6  0E00               	movlw	0
  3242  0012F8  EC70  F00D         	call	_LoadBDTandSetUOWN
  3243                           
  3244                           ;usb_device.c: 1241: ep0Bi.ADR = (uint8_t*)&CtrlTrfData;
  3245  0012FC  0104               	movlb	4	; () banked
  3246  0012FE  0E04               	movlw	4	;volatile
  3247  001300  0104               	movlb	4	; () banked
  3248  001302  0104               	movlb	4	; () banked
  3249  001304  6F0B               	movwf	11,b	;volatile
  3250  001306  0104               	movlb	4	; () banked
  3251  001308  0E24               	movlw	36	;volatile
  3252  00130A  0104               	movlb	4	; () banked
  3253  00130C  0104               	movlb	4	; () banked
  3254  00130E  6F0A               	movwf	10,b	;volatile
  3255  001310  D028               	goto	L15
  3256  001312                     l2795:
  3257                           
  3258                           ;usb_device.c: 1245: else
  3259                           ;usb_device.c: 1246: {
  3260                           ;usb_device.c: 1257: ctrl_trf_state = 2;
  3261  001312  6E4C               	movwf	??_USBCtrlEPServiceComplete& (0+255),c
  3262  001314  0E02               	movlw	2
  3263  001316  6E37               	movwf	_ctrl_trf_state,c
  3264  001318  504C               	movf	??_USBCtrlEPServiceComplete& (0+255),w,c
  3265                           
  3266                           ;usb_device.c: 1262: TempBDT.Stat._byte = 0x04;
  3267  00131A  6E4C               	movwf	??_USBCtrlEPServiceComplete& (0+255),c
  3268  00131C  0E04               	movlw	4
  3269  00131E  6E05               	movwf	_TempBDT,c
  3270  001320  504C               	movf	??_USBCtrlEPServiceComplete& (0+255),w,c
  3271                           
  3272                           ;usb_device.c: 1264: if(SetupPkt.wLength == 0)
  3273  001322  5043               	movf	_SetupPkt+7,w,c
  3274  001324  1042               	iorwf	_SetupPkt+6,w,c
  3275  001326  A4D8               	btfss	status,2,c
  3276  001328  D004               	goto	l2801
  3277                           
  3278                           ;usb_device.c: 1265: {
  3279                           ;usb_device.c: 1266: TempBDT.Stat._byte = 0x40|0x08;
  3280  00132A  6E4C               	movwf	??_USBCtrlEPServiceComplete& (0+255),c
  3281  00132C  0E48               	movlw	72
  3282  00132E  6E05               	movwf	_TempBDT,c
  3283  001330  504C               	movf	??_USBCtrlEPServiceComplete& (0+255),w,c
  3284  001332                     l2801:
  3285                           
  3286                           ;usb_device.c: 1267: }
  3287                           ;usb_device.c: 1269: if(EP0OutOddNeedsArmingNext == 1)
  3288  001332  0433               	decf	_EP0OutOddNeedsArmingNext,w,c
  3289  001334  A4D8               	btfss	status,2,c
  3290  001336  D006               	goto	l2807
  3291                           
  3292                           ;usb_device.c: 1270: {
  3293                           ;usb_device.c: 1271: LoadBDTandSetUOWN(1);
  3294  001338  0E01               	movlw	1
  3295  00133A  EC70  F00D         	call	_LoadBDTandSetUOWN
  3296                           
  3297                           ;usb_device.c: 1272: EP0OutOddNeedsArmingNext = 0;
  3298  00133E  6E4C               	movwf	??_USBCtrlEPServiceComplete& (0+255),c
  3299  001340  0E00               	movlw	0
  3300  001342  D005               	goto	L16
  3301  001344                     l2807:
  3302                           
  3303                           ;usb_device.c: 1274: else
  3304                           ;usb_device.c: 1275: {
  3305                           ;usb_device.c: 1276: LoadBDTandSetUOWN(0);
  3306  001344  0E00               	movlw	0
  3307  001346  EC70  F00D         	call	_LoadBDTandSetUOWN
  3308                           
  3309                           ;usb_device.c: 1277: EP0OutOddNeedsArmingNext = 1;
  3310  00134A  6E4C               	movwf	??_USBCtrlEPServiceComplete& (0+255),c
  3311  00134C  0E01               	movlw	1
  3312  00134E                     L16:
  3313  00134E  6E33               	movwf	_EP0OutOddNeedsArmingNext,c
  3314  001350  504C               	movf	??_USBCtrlEPServiceComplete& (0+255),w,c
  3315                           
  3316                           ;usb_device.c: 1278: }
  3317                           ;usb_device.c: 1282: if(SetupPkt.wLength == 0)
  3318  001352  5043               	movf	_SetupPkt+7,w,c
  3319  001354  1042               	iorwf	_SetupPkt+6,w,c
  3320  001356  A4D8               	btfss	status,2,c
  3321  001358  D00B               	goto	l548
  3322                           
  3323                           ;usb_device.c: 1283: {
  3324                           ;usb_device.c: 1285: ep0Bi.Cnt = 0;
  3325  00135A  0E00               	movlw	0
  3326  00135C  0104               	movlb	4	; () banked
  3327  00135E  0104               	movlb	4	; () banked
  3328  001360  6F09               	movwf	9,b	;volatile
  3329  001362                     L15:
  3330                           
  3331                           ;usb_device.c: 1286: ep0Bi.Stat._byte = 0x40|0x08;
  3332  001362  0E48               	movlw	72
  3333  001364  0104               	movlb	4	; () banked
  3334  001366  0104               	movlb	4	; () banked
  3335  001368  6F08               	movwf	8,b	;volatile
  3336                           
  3337                           ; BSR set to: 4
  3338                           ;usb_device.c: 1287: ep0Bi.Stat._byte |= 0x80;
  3339  00136A  0104               	movlb	4	; () banked
  3340  00136C  0104               	movlb	4	; () banked
  3341  00136E  8F08               	bsf	8,7,b	;volatile
  3342  001370                     l548:
  3343  001370  0012               	return	
  3344  001372                     __end_of_USBCtrlEPServiceComplete:
  3345                           	opt stack 0
  3346                           stkptr	equ	0xFFC
  3347                           tblptru	equ	0xFF8
  3348                           tblptrh	equ	0xFF7
  3349                           tblptrl	equ	0xFF6
  3350                           tablat	equ	0xFF5
  3351                           prodh	equ	0xFF4
  3352                           prodl	equ	0xFF3
  3353                           intcon	equ	0xFF2
  3354                           postinc0	equ	0xFEE
  3355                           wreg	equ	0xFE8
  3356                           indf1	equ	0xFE7
  3357                           fsr1h	equ	0xFE2
  3358                           fsr1l	equ	0xFE1
  3359                           indf2	equ	0xFDF
  3360                           postinc2	equ	0xFDE
  3361                           postdec2	equ	0xFDD
  3362                           fsr2h	equ	0xFDA
  3363                           fsr2l	equ	0xFD9
  3364                           status	equ	0xFD8
  3365                           
  3366 ;; *************** function _USBCheckStdRequest *****************
  3367 ;; Defined at:
  3368 ;;		line 1317 in file "../src/usb_device.c"
  3369 ;; Parameters:    Size  Location     Type
  3370 ;;		None
  3371 ;; Auto vars:     Size  Location     Type
  3372 ;;		None
  3373 ;; Return value:  Size  Location     Type
  3374 ;;		None               void
  3375 ;; Registers used:
  3376 ;;		wreg, fsr1l, fsr1h, fsr2l, fsr2h, status,2, status,0, tblptrl, tblptrh, tblptru, prodl, prodh, cstack
  3377 ;; Tracked objects:
  3378 ;;		On entry : 0/0
  3379 ;;		On exit  : 0/0
  3380 ;;		Unchanged: 0/0
  3381 ;; Data sizes:     COMRAM   BANK0   BANK1   BANK2   BANK3  BANK4h   BANK5   BANK6   BANK7
  3382 ;;      Params:         0       0       0       0       0       0       0       0       0
  3383 ;;      Locals:         0       0       0       0       0       0       0       0       0
  3384 ;;      Temps:          1       0       0       0       0       0       0       0       0
  3385 ;;      Totals:         1       0       0       0       0       0       0       0       0
  3386 ;;Total ram usage:        1 bytes
  3387 ;; Hardware stack levels used:    1
  3388 ;; Hardware stack levels required when called:    3
  3389 ;; This function calls:
  3390 ;;		_USBStdFeatureReqHandler
  3391 ;;		_USBStdGetDscHandler
  3392 ;;		_USBStdGetStatusHandler
  3393 ;;		_USBStdSetCfgHandler
  3394 ;; This function is called by:
  3395 ;;		_USBCtrlTrfSetupHandler
  3396 ;; This function uses a non-reentrant model
  3397 ;;
  3398                           
  3399                           	psect	text13
  3400  001372                     __ptext13:
  3401                           	opt stack 0
  3402  001372                     _USBCheckStdRequest:
  3403                           	opt stack 24
  3404                           
  3405                           ;usb_device.c: 1319: if(SetupPkt.RequestType != 0x00) return;
  3406                           
  3407                           ;incstack = 0
  3408  001372  383C               	swapf	_SetupPkt,w,c
  3409  001374  32E8               	rrcf	wreg,f,c
  3410  001376  0B03               	andlw	3
  3411  001378  0900               	iorlw	0
  3412  00137A  A4D8               	btfss	status,2,c
  3413  00137C  D060               	goto	l552
  3414  00137E  D03F               	goto	l3103
  3415  001380                     l3071:
  3416                           
  3417                           ;usb_device.c: 1324: ctrl_trf_session_owner = 1;
  3418  001380  6E4E               	movwf	??_USBCheckStdRequest& (0+255),c
  3419  001382  0E01               	movlw	1
  3420  001384  6E36               	movwf	_ctrl_trf_session_owner,c
  3421  001386  504E               	movf	??_USBCheckStdRequest& (0+255),w,c
  3422                           
  3423                           ;usb_device.c: 1325: usb_device_state = 4;
  3424  001388  6E4E               	movwf	??_USBCheckStdRequest& (0+255),c
  3425  00138A  0E04               	movlw	4
  3426  00138C  6E3A               	movwf	_usb_device_state,c
  3427  00138E  D00F               	goto	L17
  3428  001390                     l3073:
  3429                           
  3430                           ;usb_device.c: 1329: USBStdGetDscHandler();
  3431  001390  EC45  F00B         	call	_USBStdGetDscHandler	;wreg free
  3432                           
  3433                           ;usb_device.c: 1330: break;
  3434  001394  D054               	goto	l552
  3435  001396                     l3075:
  3436                           
  3437                           ;usb_device.c: 1332: USBStdSetCfgHandler();
  3438  001396  ECDB  F00C         	call	_USBStdSetCfgHandler	;wreg free
  3439                           
  3440                           ;usb_device.c: 1333: break;
  3441  00139A  D051               	goto	l552
  3442  00139C                     l3077:
  3443                           
  3444                           ;usb_device.c: 1335: ctrl_trf_session_owner = 1;
  3445  00139C  6E4E               	movwf	??_USBCheckStdRequest& (0+255),c
  3446  00139E  0E01               	movlw	1
  3447  0013A0  6E36               	movwf	_ctrl_trf_session_owner,c
  3448  0013A2  504E               	movf	??_USBCheckStdRequest& (0+255),w,c
  3449                           
  3450                           ;usb_device.c: 1336: pSrc.bRam = (uint8_t*)&usb_active_cfg;
  3451  0013A4  0E00               	movlw	high _usb_active_cfg
  3452  0013A6  6E16               	movwf	_pSrc+1,c
  3453  0013A8  0E48               	movlw	low _usb_active_cfg
  3454  0013AA  6E15               	movwf	_pSrc,c
  3455  0013AC  D014               	goto	L18
  3456  0013AE                     L17:
  3457  0013AE  504E               	movf	??_USBCheckStdRequest& (0+255),w,c
  3458                           
  3459                           ;usb_device.c: 1340: break;
  3460  0013B0  D046               	goto	l552
  3461  0013B2                     l3085:
  3462                           
  3463                           ;usb_device.c: 1342: USBStdGetStatusHandler();
  3464  0013B2  EC20  F00A         	call	_USBStdGetStatusHandler	;wreg free
  3465                           
  3466                           ;usb_device.c: 1343: break;
  3467  0013B6  D043               	goto	l552
  3468  0013B8                     l3087:
  3469                           
  3470                           ;usb_device.c: 1345: case 3:
  3471                           ;usb_device.c: 1346: USBStdFeatureReqHandler();
  3472  0013B8  EC82  F00A         	call	_USBStdFeatureReqHandler	;wreg free
  3473                           
  3474                           ;usb_device.c: 1347: break;
  3475  0013BC  D040               	goto	l552
  3476  0013BE                     l3089:
  3477                           
  3478                           ;usb_device.c: 1349: ctrl_trf_session_owner = 1;
  3479  0013BE  6E4E               	movwf	??_USBCheckStdRequest& (0+255),c
  3480  0013C0  0E01               	movlw	1
  3481  0013C2  6E36               	movwf	_ctrl_trf_session_owner,c
  3482  0013C4  504E               	movf	??_USBCheckStdRequest& (0+255),w,c
  3483                           
  3484                           ;usb_device.c: 1350: pSrc.bRam = (uint8_t*)&usb_alt_intf+SetupPkt.bIntfID;
  3485  0013C6  5040               	movf	_SetupPkt+4,w,c
  3486  0013C8  0D01               	mullw	1
  3487  0013CA  0E49               	movlw	low _usb_alt_intf
  3488  0013CC  24F3               	addwf	prodl,w,c
  3489  0013CE  6E15               	movwf	_pSrc,c
  3490  0013D0  0E00               	movlw	high _usb_alt_intf
  3491  0013D2  20F4               	addwfc	prodh,w,c
  3492  0013D4  6E16               	movwf	_pSrc+1,c
  3493  0013D6                     L18:
  3494                           
  3495                           ;usb_device.c: 1351: usb_stat.ctrl_trf_mem = 0;
  3496  0013D6  923B               	bcf	_usb_stat,1,c
  3497                           
  3498                           ;usb_device.c: 1352: wCount.v[0] = 1;
  3499  0013D8  6E4E               	movwf	??_USBCheckStdRequest& (0+255),c
  3500  0013DA  0E01               	movlw	1
  3501  0013DC  6E44               	movwf	_wCount,c
  3502  0013DE  D7E7               	goto	L17
  3503  0013E0                     l3097:
  3504                           
  3505                           ;usb_device.c: 1355: ctrl_trf_session_owner = 1;
  3506  0013E0  6E4E               	movwf	??_USBCheckStdRequest& (0+255),c
  3507  0013E2  0E01               	movlw	1
  3508  0013E4  6E36               	movwf	_ctrl_trf_session_owner,c
  3509  0013E6  504E               	movf	??_USBCheckStdRequest& (0+255),w,c
  3510                           
  3511                           ;usb_device.c: 1356: usb_alt_intf[SetupPkt.bIntfID] = SetupPkt.bAltID;
  3512  0013E8  5040               	movf	_SetupPkt+4,w,c
  3513  0013EA  0D01               	mullw	1
  3514  0013EC  0E49               	movlw	low _usb_alt_intf
  3515  0013EE  24F3               	addwf	prodl,w,c
  3516  0013F0  6ED9               	movwf	fsr2l,c
  3517  0013F2  0E00               	movlw	high _usb_alt_intf
  3518  0013F4  20F4               	addwfc	prodh,w,c
  3519  0013F6  6EDA               	movwf	fsr2h,c
  3520  0013F8  C03E  FFDF         	movff	_SetupPkt+2,indf2
  3521                           
  3522                           ;usb_device.c: 1357: break;
  3523  0013FC  D020               	goto	l552
  3524  0013FE                     l3103:
  3525  0013FE  503D               	movf	_SetupPkt+1,w,c
  3526                           
  3527                           ; Switch size 1, requested type "space"
  3528                           ; Number of cases is 11, Range of values is 0 to 12
  3529                           ; switch strategies available:
  3530                           ; Name         Instructions Cycles
  3531                           ; simple_byte           34    18 (average)
  3532                           ;	Chosen strategy is simple_byte
  3533  001400  0A00               	xorlw	0	; case 0
  3534  001402  B4D8               	btfsc	status,2,c
  3535  001404  D7D6               	goto	l3085
  3536  001406  0A01               	xorlw	1	; case 1
  3537  001408  B4D8               	btfsc	status,2,c
  3538  00140A  D7D6               	goto	l3087
  3539  00140C  0A02               	xorlw	2	; case 3
  3540  00140E  B4D8               	btfsc	status,2,c
  3541  001410  D7D3               	goto	l3087
  3542  001412  0A06               	xorlw	6	; case 5
  3543  001414  B4D8               	btfsc	status,2,c
  3544  001416  D7B4               	goto	l3071
  3545  001418  0A03               	xorlw	3	; case 6
  3546  00141A  B4D8               	btfsc	status,2,c
  3547  00141C  D7B9               	goto	l3073
  3548  00141E  0A01               	xorlw	1	; case 7
  3549  001420  B4D8               	btfsc	status,2,c
  3550  001422  D00D               	goto	l552
  3551  001424  0A0F               	xorlw	15	; case 8
  3552  001426  B4D8               	btfsc	status,2,c
  3553  001428  D7B9               	goto	l3077
  3554  00142A  0A01               	xorlw	1	; case 9
  3555  00142C  B4D8               	btfsc	status,2,c
  3556  00142E  D7B3               	goto	l3075
  3557  001430  0A03               	xorlw	3	; case 10
  3558  001432  B4D8               	btfsc	status,2,c
  3559  001434  D7C4               	goto	l3089
  3560  001436  0A01               	xorlw	1	; case 11
  3561  001438  B4D8               	btfsc	status,2,c
  3562  00143A  D7D2               	goto	l3097
  3563  00143C  0A07               	xorlw	7	; case 12
  3564  00143E                     l552:
  3565  00143E  0012               	return	
  3566  001440                     __end_of_USBCheckStdRequest:
  3567                           	opt stack 0
  3568                           stkptr	equ	0xFFC
  3569                           tblptru	equ	0xFF8
  3570                           tblptrh	equ	0xFF7
  3571                           tblptrl	equ	0xFF6
  3572                           tablat	equ	0xFF5
  3573                           prodh	equ	0xFF4
  3574                           prodl	equ	0xFF3
  3575                           intcon	equ	0xFF2
  3576                           postinc0	equ	0xFEE
  3577                           wreg	equ	0xFE8
  3578                           indf1	equ	0xFE7
  3579                           fsr1h	equ	0xFE2
  3580                           fsr1l	equ	0xFE1
  3581                           indf2	equ	0xFDF
  3582                           postinc2	equ	0xFDE
  3583                           postdec2	equ	0xFDD
  3584                           fsr2h	equ	0xFDA
  3585                           fsr2l	equ	0xFD9
  3586                           status	equ	0xFD8
  3587                           
  3588 ;; *************** function _USBStdSetCfgHandler *****************
  3589 ;; Defined at:
  3590 ;;		line 1432 in file "../src/usb_device.c"
  3591 ;; Parameters:    Size  Location     Type
  3592 ;;		None
  3593 ;; Auto vars:     Size  Location     Type
  3594 ;;		None
  3595 ;; Return value:  Size  Location     Type
  3596 ;;		None               void
  3597 ;; Registers used:
  3598 ;;		wreg, fsr2l, fsr2h, status,2, status,0, prodl, prodh, cstack
  3599 ;; Tracked objects:
  3600 ;;		On entry : 0/0
  3601 ;;		On exit  : 0/0
  3602 ;;		Unchanged: 0/0
  3603 ;; Data sizes:     COMRAM   BANK0   BANK1   BANK2   BANK3  BANK4h   BANK5   BANK6   BANK7
  3604 ;;      Params:         0       0       0       0       0       0       0       0       0
  3605 ;;      Locals:         0       0       0       0       0       0       0       0       0
  3606 ;;      Temps:          1       0       0       0       0       0       0       0       0
  3607 ;;      Totals:         1       0       0       0       0       0       0       0       0
  3608 ;;Total ram usage:        1 bytes
  3609 ;; Hardware stack levels used:    1
  3610 ;; Hardware stack levels required when called:    2
  3611 ;; This function calls:
  3612 ;;		_USBCBInitEP
  3613 ;; This function is called by:
  3614 ;;		_USBCheckStdRequest
  3615 ;; This function uses a non-reentrant model
  3616 ;;
  3617                           
  3618                           	psect	text14
  3619  0019B6                     __ptext14:
  3620                           	opt stack 0
  3621  0019B6                     _USBStdSetCfgHandler:
  3622                           	opt stack 24
  3623                           
  3624                           ;usb_device.c: 1434: static unsigned char i;
  3625                           ;usb_device.c: 1436: ctrl_trf_session_owner = 1;
  3626                           
  3627                           ;incstack = 0
  3628  0019B6  6E4C               	movwf	??_USBStdSetCfgHandler& (0+255),c
  3629  0019B8  0E01               	movlw	1
  3630  0019BA  6E36               	movwf	_ctrl_trf_session_owner,c
  3631  0019BC  504C               	movf	??_USBStdSetCfgHandler& (0+255),w,c
  3632                           
  3633                           ;usb_device.c: 1438: UEP1=0x00;UEP2=0x00;UEP3=0x00; UEP4=0x00;UEP5=0x00;UEP6=0x00;UEP7=0
      +                          x00;;
  3634  0019BE  0E00               	movlw	0
  3635  0019C0  6E71               	movwf	3953,c	;volatile
  3636  0019C2  0E00               	movlw	0
  3637  0019C4  6E72               	movwf	3954,c	;volatile
  3638  0019C6  0E00               	movlw	0
  3639  0019C8  6E73               	movwf	3955,c	;volatile
  3640  0019CA  0E00               	movlw	0
  3641  0019CC  6E74               	movwf	3956,c	;volatile
  3642  0019CE  0E00               	movlw	0
  3643  0019D0  6E75               	movwf	3957,c	;volatile
  3644  0019D2  0E00               	movlw	0
  3645  0019D4  6E76               	movwf	3958,c	;volatile
  3646  0019D6  0E00               	movlw	0
  3647  0019D8  6E77               	movwf	3959,c	;volatile
  3648                           
  3649                           ;usb_device.c: 1440: for(i = 0; i < 1; i++)
  3650  0019DA  6E4C               	movwf	??_USBStdSetCfgHandler& (0+255),c
  3651  0019DC  0E00               	movlw	0
  3652  0019DE  6E28               	movwf	USBStdSetCfgHandler@i,c
  3653  0019E0  504C               	movf	??_USBStdSetCfgHandler& (0+255),w,c
  3654  0019E2  5028               	movf	USBStdSetCfgHandler@i,w,c
  3655  0019E4  A4D8               	btfss	status,2,c
  3656  0019E6  D00C               	goto	l582
  3657                           
  3658                           ;usb_device.c: 1441: {
  3659                           ;usb_device.c: 1442: usb_alt_intf[i] = 0;
  3660  0019E8  5028               	movf	USBStdSetCfgHandler@i,w,c
  3661  0019EA  0D01               	mullw	1
  3662  0019EC  0E49               	movlw	low _usb_alt_intf
  3663  0019EE  24F3               	addwf	prodl,w,c
  3664  0019F0  6ED9               	movwf	fsr2l,c
  3665  0019F2  0E00               	movlw	high _usb_alt_intf
  3666  0019F4  20F4               	addwfc	prodh,w,c
  3667  0019F6  6EDA               	movwf	fsr2h,c
  3668  0019F8  0E00               	movlw	0
  3669  0019FA  6EDF               	movwf	indf2,c
  3670  0019FC  2A28               	incf	USBStdSetCfgHandler@i,f,c
  3671  0019FE  D7F1               	goto	L19
  3672  001A00                     l582:
  3673                           
  3674                           ;usb_device.c: 1443: }
  3675                           ;usb_device.c: 1446: usb_active_cfg = SetupPkt.bCfgValue;
  3676  001A00  C03E  F048         	movff	_SetupPkt+2,_usb_active_cfg
  3677                           
  3678                           ;usb_device.c: 1453: USBCBInitEP(usb_active_cfg);
  3679  001A04  5048               	movf	_usb_active_cfg,w,c
  3680  001A06  EC93  F00E         	call	_USBCBInitEP
  3681                           
  3682                           ;usb_device.c: 1455: if(SetupPkt.bCfgValue == 0)
  3683  001A0A  663E               	tstfsz	_SetupPkt+2,c
  3684  001A0C  D003               	goto	l3035
  3685                           
  3686                           ;usb_device.c: 1456: {
  3687                           ;usb_device.c: 1457: usb_device_state = 5;
  3688  001A0E  6E4C               	movwf	??_USBStdSetCfgHandler& (0+255),c
  3689  001A10  0E05               	movlw	5
  3690  001A12  D002               	goto	L20
  3691  001A14                     l3035:
  3692                           
  3693                           ;usb_device.c: 1459: else
  3694                           ;usb_device.c: 1460: {
  3695                           ;usb_device.c: 1461: usb_device_state = 6;
  3696  001A14  6E4C               	movwf	??_USBStdSetCfgHandler& (0+255),c
  3697  001A16  0E06               	movlw	6
  3698  001A18                     L20:
  3699  001A18  6E3A               	movwf	_usb_device_state,c
  3700  001A1A  504C               	movf	??_USBStdSetCfgHandler& (0+255),w,c
  3701  001A1C  0012               	return	
  3702  001A1E                     __end_of_USBStdSetCfgHandler:
  3703                           	opt stack 0
  3704                           stkptr	equ	0xFFC
  3705                           tblptru	equ	0xFF8
  3706                           tblptrh	equ	0xFF7
  3707                           tblptrl	equ	0xFF6
  3708                           tablat	equ	0xFF5
  3709                           prodh	equ	0xFF4
  3710                           prodl	equ	0xFF3
  3711                           intcon	equ	0xFF2
  3712                           postinc0	equ	0xFEE
  3713                           wreg	equ	0xFE8
  3714                           indf1	equ	0xFE7
  3715                           fsr1h	equ	0xFE2
  3716                           fsr1l	equ	0xFE1
  3717                           indf2	equ	0xFDF
  3718                           postinc2	equ	0xFDE
  3719                           postdec2	equ	0xFDD
  3720                           fsr2h	equ	0xFDA
  3721                           fsr2l	equ	0xFD9
  3722                           status	equ	0xFD8
  3723                           
  3724 ;; *************** function _USBStdGetStatusHandler *****************
  3725 ;; Defined at:
  3726 ;;		line 1481 in file "../src/usb_device.c"
  3727 ;; Parameters:    Size  Location     Type
  3728 ;;		None
  3729 ;; Auto vars:     Size  Location     Type
  3730 ;;		None
  3731 ;; Return value:  Size  Location     Type
  3732 ;;		None               void
  3733 ;; Registers used:
  3734 ;;		wreg, fsr2l, fsr2h, status,2, status,0, prodl, prodh
  3735 ;; Tracked objects:
  3736 ;;		On entry : 0/0
  3737 ;;		On exit  : 0/0
  3738 ;;		Unchanged: 0/0
  3739 ;; Data sizes:     COMRAM   BANK0   BANK1   BANK2   BANK3  BANK4h   BANK5   BANK6   BANK7
  3740 ;;      Params:         0       0       0       0       0       0       0       0       0
  3741 ;;      Locals:         0       0       0       0       0       0       0       0       0
  3742 ;;      Temps:          4       0       0       0       0       0       0       0       0
  3743 ;;      Totals:         4       0       0       0       0       0       0       0       0
  3744 ;;Total ram usage:        4 bytes
  3745 ;; Hardware stack levels used:    1
  3746 ;; This function calls:
  3747 ;;		Nothing
  3748 ;; This function is called by:
  3749 ;;		_USBCheckStdRequest
  3750 ;; This function uses a non-reentrant model
  3751 ;;
  3752                           
  3753                           	psect	text15
  3754  001440                     __ptext15:
  3755                           	opt stack 0
  3756  001440                     _USBStdGetStatusHandler:
  3757                           	opt stack 26
  3758                           
  3759                           ;usb_device.c: 1483: CtrlTrfData._byte0 = 0;
  3760                           
  3761                           ;incstack = 0
  3762  001440  0E00               	movlw	0
  3763  001442  0104               	movlb	4	; () banked
  3764  001444  0104               	movlb	4	; () banked
  3765  001446  6F24               	movwf	36,b	;volatile
  3766                           
  3767                           ;usb_device.c: 1484: CtrlTrfData._byte1 = 0;
  3768  001448  0E00               	movlw	0
  3769  00144A  0104               	movlb	4	; () banked
  3770  00144C  0104               	movlb	4	; () banked
  3771  00144E  6F25               	movwf	37,b	;volatile
  3772                           
  3773                           ;usb_device.c: 1486: switch(SetupPkt.Recipient)
  3774  001450  D03F               	goto	l2583
  3775  001452                     l2563:
  3776                           
  3777                           ; BSR set to: 4
  3778                           ;usb_device.c: 1489: ctrl_trf_session_owner = 1;
  3779  001452  6E4A               	movwf	??_USBStdGetStatusHandler& (0+255),c
  3780  001454  0E01               	movlw	1
  3781  001456  6E36               	movwf	_ctrl_trf_session_owner,c
  3782  001458  504A               	movf	??_USBStdGetStatusHandler& (0+255),w,c
  3783                           
  3784                           ; BSR set to: 4
  3785                           ;usb_device.c: 1497: if(usb_stat.RemoteWakeup == 1)
  3786                           
  3787                           ; BSR set to: 4
  3788                           
  3789                           ; BSR set to: 4
  3790                           ;usb_device.c: 1496: CtrlTrfData._byte0 |= 0b00000001;
  3791                           
  3792                           ;usb_device.c: 1495: if(0 == 1)
  3793  00145A  A03B               	btfss	_usb_stat,0,c
  3794  00145C  D044               	goto	l2585
  3795                           
  3796                           ; BSR set to: 4
  3797                           ;usb_device.c: 1498: CtrlTrfData._byte0|=0b00000010;
  3798  00145E  0104               	movlb	4	; () banked
  3799  001460  0104               	movlb	4	; () banked
  3800  001462  8324               	bsf	36,1,b	;volatile
  3801  001464  D040               	goto	l2585
  3802  001466                     l2571:
  3803                           
  3804                           ; BSR set to: 4
  3805                           ;usb_device.c: 1501: ctrl_trf_session_owner = 1;
  3806  001466  6E4A               	movwf	??_USBStdGetStatusHandler& (0+255),c
  3807  001468  0E01               	movlw	1
  3808  00146A  6E36               	movwf	_ctrl_trf_session_owner,c
  3809  00146C  504A               	movf	??_USBStdGetStatusHandler& (0+255),w,c
  3810                           
  3811                           ;usb_device.c: 1502: break;
  3812  00146E  D03B               	goto	l2585
  3813  001470                     l2573:
  3814                           
  3815                           ; BSR set to: 4
  3816                           ;usb_device.c: 1504: ctrl_trf_session_owner = 1;
  3817  001470  6E4A               	movwf	??_USBStdGetStatusHandler& (0+255),c
  3818  001472  0E01               	movlw	1
  3819  001474  6E36               	movwf	_ctrl_trf_session_owner,c
  3820  001476  504A               	movf	??_USBStdGetStatusHandler& (0+255),w,c
  3821                           
  3822                           ; BSR set to: 4
  3823                           ;usb_device.c: 1508: pDst.bRam = (uint8_t*)&ep0BoEven+(SetupPkt.EPNum*8)+(SetupPkt.EPDir
      +                          *4)+4;
  3824  001478  5040               	movf	_SetupPkt+4,w,c
  3825  00147A  0B0F               	andlw	15
  3826  00147C  6E4A               	movwf	??_USBStdGetStatusHandler& (0+255),c
  3827  00147E  504A               	movf	??_USBStdGetStatusHandler,w,c
  3828  001480  0D08               	mullw	8
  3829  001482  0E00               	movlw	0	;volatile
  3830  001484  6E4B               	movwf	(??_USBStdGetStatusHandler+1)& (0+255),c
  3831  001486  0E04               	movlw	4	;volatile
  3832  001488  6E4C               	movwf	(??_USBStdGetStatusHandler+2)& (0+255),c
  3833  00148A  50F3               	movf	prodl,w,c
  3834  00148C  264B               	addwf	??_USBStdGetStatusHandler+1,f,c
  3835  00148E  50F4               	movf	prodh,w,c
  3836  001490  224C               	addwfc	??_USBStdGetStatusHandler+2,f,c
  3837  001492  AE40               	btfss	_SetupPkt+4,7,c
  3838  001494  D003               	goto	u1450
  3839  001496  6A4D               	clrf	(??_USBStdGetStatusHandler+3)& (0+255),c
  3840  001498  2A4D               	incf	(??_USBStdGetStatusHandler+3)& (0+255),f,c
  3841  00149A  D001               	goto	u1458
  3842  00149C                     u1450:
  3843  00149C  6A4D               	clrf	(??_USBStdGetStatusHandler+3)& (0+255),c
  3844  00149E                     u1458:
  3845  00149E  504D               	movf	??_USBStdGetStatusHandler+3,w,c
  3846  0014A0  0D04               	mullw	4
  3847  0014A2  50F3               	movf	prodl,w,c
  3848  0014A4  264B               	addwf	??_USBStdGetStatusHandler+1,f,c
  3849  0014A6  50F4               	movf	prodh,w,c
  3850  0014A8  224C               	addwfc	??_USBStdGetStatusHandler+2,f,c
  3851  0014AA  0E04               	movlw	4
  3852  0014AC  244B               	addwf	??_USBStdGetStatusHandler+1,w,c
  3853  0014AE  6E12               	movwf	_pDst,c
  3854  0014B0  0E00               	movlw	0
  3855  0014B2  204C               	addwfc	??_USBStdGetStatusHandler+2,w,c
  3856  0014B4  6E13               	movwf	_pDst+1,c
  3857                           
  3858                           ; BSR set to: 4
  3859                           ;usb_device.c: 1509: if(*pDst.bRam & 0x04)
  3860  0014B6  C012  FFD9         	movff	_pDst,fsr2l
  3861  0014BA  C013  FFDA         	movff	_pDst+1,fsr2h
  3862  0014BE  50DF               	movf	indf2,w,c
  3863  0014C0  6E4A               	movwf	??_USBStdGetStatusHandler& (0+255),c
  3864  0014C2  A44A               	btfss	??_USBStdGetStatusHandler,2,c
  3865  0014C4  D010               	goto	l2585
  3866                           
  3867                           ; BSR set to: 4
  3868                           ;usb_device.c: 1510: CtrlTrfData._byte0=0x01;
  3869  0014C6  0E01               	movlw	1
  3870  0014C8  0104               	movlb	4	; () banked
  3871  0014CA  0104               	movlb	4	; () banked
  3872  0014CC  6F24               	movwf	36,b	;volatile
  3873  0014CE  D00B               	goto	l2585
  3874  0014D0                     l2583:
  3875                           
  3876                           ; BSR set to: 4
  3877  0014D0  503C               	movf	_SetupPkt,w,c
  3878  0014D2  0B1F               	andlw	31
  3879                           
  3880                           ; Switch size 1, requested type "space"
  3881                           ; Number of cases is 3, Range of values is 0 to 2
  3882                           ; switch strategies available:
  3883                           ; Name         Instructions Cycles
  3884                           ; simple_byte           10     6 (average)
  3885                           ;	Chosen strategy is simple_byte
  3886  0014D4  0A00               	xorlw	0	; case 0
  3887  0014D6  B4D8               	btfsc	status,2,c
  3888  0014D8  D7BC               	goto	l2563
  3889  0014DA  0A01               	xorlw	1	; case 1
  3890  0014DC  B4D8               	btfsc	status,2,c
  3891  0014DE  D7C3               	goto	l2571
  3892  0014E0  0A03               	xorlw	3	; case 2
  3893  0014E2  B4D8               	btfsc	status,2,c
  3894  0014E4  D7C5               	goto	l2573
  3895  0014E6                     l2585:
  3896                           
  3897                           ; BSR set to: 4
  3898                           ;usb_device.c: 1514: if(ctrl_trf_session_owner == 1)
  3899  0014E6  0436               	decf	_ctrl_trf_session_owner,w,c
  3900  0014E8  A4D8               	btfss	status,2,c
  3901  0014EA  D00B               	goto	l597
  3902                           
  3903                           ; BSR set to: 4
  3904                           ;usb_device.c: 1515: {
  3905                           ;usb_device.c: 1516: pSrc.bRam = (uint8_t*)&CtrlTrfData;
  3906  0014EC  0104               	movlb	4	; () banked
  3907  0014EE  0E04               	movlw	4	;volatile
  3908  0014F0  6E16               	movwf	_pSrc+1,c
  3909  0014F2  0104               	movlb	4	; () banked
  3910  0014F4  0E24               	movlw	36	;volatile
  3911  0014F6  6E15               	movwf	_pSrc,c
  3912                           
  3913                           ; BSR set to: 4
  3914                           ;usb_device.c: 1517: usb_stat.ctrl_trf_mem = 0;
  3915  0014F8  923B               	bcf	_usb_stat,1,c
  3916                           
  3917                           ; BSR set to: 4
  3918                           ;usb_device.c: 1518: wCount.v[0] = 2;
  3919  0014FA  6E4A               	movwf	??_USBStdGetStatusHandler& (0+255),c
  3920  0014FC  0E02               	movlw	2
  3921  0014FE  6E44               	movwf	_wCount,c
  3922  001500  504A               	movf	??_USBStdGetStatusHandler& (0+255),w,c
  3923  001502                     l597:
  3924                           
  3925                           ; BSR set to: 4
  3926  001502  0012               	return	
  3927  001504                     __end_of_USBStdGetStatusHandler:
  3928                           	opt stack 0
  3929                           stkptr	equ	0xFFC
  3930                           tblptru	equ	0xFF8
  3931                           tblptrh	equ	0xFF7
  3932                           tblptrl	equ	0xFF6
  3933                           tablat	equ	0xFF5
  3934                           prodh	equ	0xFF4
  3935                           prodl	equ	0xFF3
  3936                           intcon	equ	0xFF2
  3937                           postinc0	equ	0xFEE
  3938                           wreg	equ	0xFE8
  3939                           indf1	equ	0xFE7
  3940                           fsr1h	equ	0xFE2
  3941                           fsr1l	equ	0xFE1
  3942                           indf2	equ	0xFDF
  3943                           postinc2	equ	0xFDE
  3944                           postdec2	equ	0xFDD
  3945                           fsr2h	equ	0xFDA
  3946                           fsr2l	equ	0xFD9
  3947                           status	equ	0xFD8
  3948                           
  3949 ;; *************** function _USBStdGetDscHandler *****************
  3950 ;; Defined at:
  3951 ;;		line 1384 in file "../src/usb_device.c"
  3952 ;; Parameters:    Size  Location     Type
  3953 ;;		None
  3954 ;; Auto vars:     Size  Location     Type
  3955 ;;		None
  3956 ;; Return value:  Size  Location     Type
  3957 ;;		None               void
  3958 ;; Registers used:
  3959 ;;		wreg, fsr1l, fsr1h, status,2, status,0, tblptrl, tblptrh, tblptru, prodl, prodh
  3960 ;; Tracked objects:
  3961 ;;		On entry : 0/0
  3962 ;;		On exit  : 0/0
  3963 ;;		Unchanged: 0/0
  3964 ;; Data sizes:     COMRAM   BANK0   BANK1   BANK2   BANK3  BANK4h   BANK5   BANK6   BANK7
  3965 ;;      Params:         0       0       0       0       0       0       0       0       0
  3966 ;;      Locals:         0       0       0       0       0       0       0       0       0
  3967 ;;      Temps:          1       0       0       0       0       0       0       0       0
  3968 ;;      Totals:         1       0       0       0       0       0       0       0       0
  3969 ;;Total ram usage:        1 bytes
  3970 ;; Hardware stack levels used:    1
  3971 ;; This function calls:
  3972 ;;		Nothing
  3973 ;; This function is called by:
  3974 ;;		_USBCheckStdRequest
  3975 ;; This function uses a non-reentrant model
  3976 ;;
  3977                           
  3978                           	psect	text16
  3979  00168A                     __ptext16:
  3980                           	opt stack 0
  3981  00168A                     _USBStdGetDscHandler:
  3982                           	opt stack 26
  3983                           
  3984                           ;usb_device.c: 1386: if(SetupPkt.bmRequestType == 0x80)
  3985                           
  3986                           ; BSR set to: 4
  3987                           ;incstack = 0
  3988  00168A  503C               	movf	_SetupPkt,w,c
  3989  00168C  0A80               	xorlw	128
  3990  00168E  B4D8               	btfsc	status,2,c
  3991  001690  D044               	goto	l2559
  3992  001692  D04E               	goto	l576
  3993  001694                     l2539:
  3994                           
  3995                           ;usb_device.c: 1391: ctrl_trf_session_owner = 1;
  3996  001694  6E4A               	movwf	??_USBStdGetDscHandler& (0+255),c
  3997  001696  0E01               	movlw	1
  3998  001698  6E36               	movwf	_ctrl_trf_session_owner,c
  3999  00169A  504A               	movf	??_USBStdGetDscHandler& (0+255),w,c
  4000                           
  4001                           ;usb_device.c: 1392: pSrc.bRom = (const uint8_t*)&device_dsc;
  4002  00169C  0E08               	movlw	high _device_dsc
  4003  00169E  6E16               	movwf	_pSrc+1,c
  4004  0016A0  0EA7               	movlw	low _device_dsc
  4005  0016A2  6E15               	movwf	_pSrc,c
  4006                           
  4007                           ;usb_device.c: 1393: wCount.v[0] = sizeof(device_dsc);
  4008  0016A4  6E4A               	movwf	??_USBStdGetDscHandler& (0+255),c
  4009  0016A6  0E12               	movlw	18
  4010  0016A8  6E44               	movwf	_wCount,c
  4011  0016AA  504A               	movf	??_USBStdGetDscHandler& (0+255),w,c
  4012                           
  4013                           ;usb_device.c: 1394: break;
  4014  0016AC  D040               	goto	l572
  4015  0016AE                     l573:
  4016                           
  4017                           ;usb_device.c: 1397: if(SetupPkt.bDscIndex < 1)
  4018  0016AE  663E               	tstfsz	_SetupPkt+2,c
  4019  0016B0  D03E               	goto	l572
  4020                           
  4021                           ;usb_device.c: 1398: {
  4022                           ;usb_device.c: 1399: ctrl_trf_session_owner = 1;
  4023  0016B2  6E4A               	movwf	??_USBStdGetDscHandler& (0+255),c
  4024  0016B4  0E01               	movlw	1
  4025  0016B6  6E36               	movwf	_ctrl_trf_session_owner,c
  4026  0016B8  504A               	movf	??_USBStdGetDscHandler& (0+255),w,c
  4027                           
  4028                           ;usb_device.c: 1400: pSrc.bRom = (const BYTE*)&CFG01;
  4029  0016BA  0E08               	movlw	high _CFG01
  4030  0016BC  6E16               	movwf	_pSrc+1,c
  4031  0016BE  0E3B               	movlw	low _CFG01
  4032  0016C0  6E15               	movwf	_pSrc,c
  4033                           
  4034                           ;usb_device.c: 1401: wCount.Val = sizeof(CFG01);
  4035  0016C2  0E00               	movlw	0
  4036  0016C4  6E45               	movwf	_wCount+1,c
  4037  0016C6  0E29               	movlw	41
  4038  0016C8  6E44               	movwf	_wCount,c
  4039  0016CA  D031               	goto	l572
  4040  0016CC                     l2551:
  4041                           
  4042                           ;usb_device.c: 1405: ctrl_trf_session_owner = 1;
  4043  0016CC  6E4A               	movwf	??_USBStdGetDscHandler& (0+255),c
  4044  0016CE  0E01               	movlw	1
  4045  0016D0  6E36               	movwf	_ctrl_trf_session_owner,c
  4046  0016D2  504A               	movf	??_USBStdGetDscHandler& (0+255),w,c
  4047                           
  4048                           ;usb_device.c: 1406: pSrc.bRom = *(USB_SD_Ptr+SetupPkt.bDscIndex);
  4049  0016D4  503E               	movf	_SetupPkt+2,w,c
  4050  0016D6  0D02               	mullw	2
  4051  0016D8  0E01               	movlw	low _USB_SD_Ptr
  4052  0016DA  24F3               	addwf	prodl,w,c
  4053  0016DC  6EF6               	movwf	tblptrl,c
  4054  0016DE  0E08               	movlw	high _USB_SD_Ptr
  4055  0016E0  20F4               	addwfc	prodh,w,c
  4056  0016E2  6EF7               	movwf	tblptrh,c
  4057  0016E4  0009               	tblrd		*+
  4058  0016E6  CFF5 F015          	movff	tablat,_pSrc
  4059  0016EA  000A               	tblrd		*-
  4060  0016EC  CFF5 F016          	movff	tablat,_pSrc+1
  4061                           
  4062                           ;usb_device.c: 1407: wCount.Val = *pSrc.bRom;
  4063  0016F0  C015  FFF6         	movff	_pSrc,tblptrl
  4064  0016F4  C016  FFF7         	movff	_pSrc+1,tblptrh
  4065  0016F8  6AF8               	clrf	tblptru,c
  4066  0016FA  0E07               	movlw	(high __ramtop+-1)
  4067  0016FC  64F7               	cpfsgt	tblptrh,c
  4068  0016FE  D003               	bra	u1437
  4069  001700  0008               	tblrd		*
  4070  001702  50F5               	movf	tablat,w,c
  4071  001704  D005               	bra	u1430
  4072  001706                     u1437:
  4073  001706  CFF6 FFE1          	movff	tblptrl,fsr1l
  4074  00170A  CFF7 FFE2          	movff	tblptrh,fsr1h
  4075  00170E  50E7               	movf	indf1,w,c
  4076  001710                     u1430:
  4077  001710  6E4A               	movwf	??_USBStdGetDscHandler& (0+255),c
  4078  001712  504A               	movf	??_USBStdGetDscHandler,w,c
  4079  001714  6E44               	movwf	_wCount,c
  4080  001716  6A45               	clrf	_wCount+1,c
  4081                           
  4082                           ;usb_device.c: 1408: break;
  4083  001718  D00A               	goto	l572
  4084  00171A                     l2559:
  4085  00171A  503F               	movf	_SetupPkt+3,w,c
  4086                           
  4087                           ; Switch size 1, requested type "space"
  4088                           ; Number of cases is 3, Range of values is 1 to 3
  4089                           ; switch strategies available:
  4090                           ; Name         Instructions Cycles
  4091                           ; simple_byte           10     6 (average)
  4092                           ;	Chosen strategy is simple_byte
  4093  00171C  0A01               	xorlw	1	; case 1
  4094  00171E  B4D8               	btfsc	status,2,c
  4095  001720  D7B9               	goto	l2539
  4096  001722  0A03               	xorlw	3	; case 2
  4097  001724  B4D8               	btfsc	status,2,c
  4098  001726  D7C3               	goto	l573
  4099  001728  0A01               	xorlw	1	; case 3
  4100  00172A  B4D8               	btfsc	status,2,c
  4101  00172C  D7CF               	goto	l2551
  4102  00172E                     l572:
  4103                           
  4104                           ;usb_device.c: 1411: usb_stat.ctrl_trf_mem = 1;
  4105  00172E  823B               	bsf	_usb_stat,1,c
  4106  001730                     l576:
  4107  001730  0012               	return	
  4108  001732                     __end_of_USBStdGetDscHandler:
  4109                           	opt stack 0
  4110                           stkptr	equ	0xFFC
  4111                           tblptru	equ	0xFF8
  4112                           tblptrh	equ	0xFF7
  4113                           tblptrl	equ	0xFF6
  4114                           tablat	equ	0xFF5
  4115                           prodh	equ	0xFF4
  4116                           prodl	equ	0xFF3
  4117                           intcon	equ	0xFF2
  4118                           postinc0	equ	0xFEE
  4119                           wreg	equ	0xFE8
  4120                           indf1	equ	0xFE7
  4121                           fsr1h	equ	0xFE2
  4122                           fsr1l	equ	0xFE1
  4123                           indf2	equ	0xFDF
  4124                           postinc2	equ	0xFDE
  4125                           postdec2	equ	0xFDD
  4126                           fsr2h	equ	0xFDA
  4127                           fsr2l	equ	0xFD9
  4128                           status	equ	0xFD8
  4129                           
  4130 ;; *************** function _USBStdFeatureReqHandler *****************
  4131 ;; Defined at:
  4132 ;;		line 1539 in file "../src/usb_device.c"
  4133 ;; Parameters:    Size  Location     Type
  4134 ;;		None
  4135 ;; Auto vars:     Size  Location     Type
  4136 ;;		None
  4137 ;; Return value:  Size  Location     Type
  4138 ;;		None               void
  4139 ;; Registers used:
  4140 ;;		wreg, fsr2l, fsr2h, status,2, status,0, prodl, prodh
  4141 ;; Tracked objects:
  4142 ;;		On entry : 0/0
  4143 ;;		On exit  : 0/0
  4144 ;;		Unchanged: 0/0
  4145 ;; Data sizes:     COMRAM   BANK0   BANK1   BANK2   BANK3  BANK4h   BANK5   BANK6   BANK7
  4146 ;;      Params:         0       0       0       0       0       0       0       0       0
  4147 ;;      Locals:         0       0       0       0       0       0       0       0       0
  4148 ;;      Temps:          4       0       0       0       0       0       0       0       0
  4149 ;;      Totals:         4       0       0       0       0       0       0       0       0
  4150 ;;Total ram usage:        4 bytes
  4151 ;; Hardware stack levels used:    1
  4152 ;; This function calls:
  4153 ;;		Nothing
  4154 ;; This function is called by:
  4155 ;;		_USBCheckStdRequest
  4156 ;; This function uses a non-reentrant model
  4157 ;;
  4158                           
  4159                           	psect	text17
  4160  001504                     __ptext17:
  4161                           	opt stack 0
  4162  001504                     _USBStdFeatureReqHandler:
  4163                           	opt stack 26
  4164                           
  4165                           ;usb_device.c: 1542: if((SetupPkt.bFeature == 0x01)&&(SetupPkt.Recipient == 0))
  4166                           
  4167                           ;incstack = 0
  4168  001504  043E               	decf	_SetupPkt+2,w,c
  4169  001506  A4D8               	btfss	status,2,c
  4170  001508  D010               	goto	l600
  4171  00150A  503C               	movf	_SetupPkt,w,c
  4172  00150C  0B1F               	andlw	31
  4173  00150E  0900               	iorlw	0
  4174  001510  A4D8               	btfss	status,2,c
  4175  001512  D00B               	goto	l600
  4176                           
  4177                           ;usb_device.c: 1543: {
  4178                           ;usb_device.c: 1544: ctrl_trf_session_owner = 1;
  4179  001514  6E4A               	movwf	??_USBStdFeatureReqHandler& (0+255),c
  4180  001516  0E01               	movlw	1
  4181  001518  6E36               	movwf	_ctrl_trf_session_owner,c
  4182  00151A  504A               	movf	??_USBStdFeatureReqHandler& (0+255),w,c
  4183                           
  4184                           ;usb_device.c: 1545: if(SetupPkt.bRequest == 3)
  4185  00151C  503D               	movf	_SetupPkt+1,w,c
  4186  00151E  0A03               	xorlw	3
  4187  001520  A4D8               	btfss	status,2,c
  4188  001522  D002               	goto	l601
  4189                           
  4190                           ;usb_device.c: 1546: usb_stat.RemoteWakeup = 1;
  4191  001524  803B               	bsf	_usb_stat,0,c
  4192  001526  D001               	goto	l600
  4193  001528                     l601:
  4194                           
  4195                           ;usb_device.c: 1547: else
  4196                           ;usb_device.c: 1548: usb_stat.RemoteWakeup = 0;
  4197  001528  903B               	bcf	_usb_stat,0,c
  4198  00152A                     l600:
  4199                           
  4200                           ;usb_device.c: 1549: }
  4201                           ;usb_device.c: 1552: if((SetupPkt.bFeature == 0x00)&&(SetupPkt.Recipient == 2)&&(SetupPk
      +                          t.EPNum != 0))
  4202  00152A  663E               	tstfsz	_SetupPkt+2,c
  4203  00152C  D04C               	goto	l608
  4204  00152E  503C               	movf	_SetupPkt,w,c
  4205  001530  0B1F               	andlw	31
  4206  001532  0A02               	xorlw	2
  4207  001534  A4D8               	btfss	status,2,c
  4208  001536  D047               	goto	l608
  4209  001538  5040               	movf	_SetupPkt+4,w,c
  4210  00153A  0B0F               	andlw	15
  4211  00153C  0900               	iorlw	0
  4212  00153E  B4D8               	btfsc	status,2,c
  4213  001540  D042               	goto	l608
  4214                           
  4215                           ;usb_device.c: 1553: {
  4216                           ;usb_device.c: 1554: ctrl_trf_session_owner = 1;
  4217  001542  6E4A               	movwf	??_USBStdFeatureReqHandler& (0+255),c
  4218  001544  0E01               	movlw	1
  4219  001546  6E36               	movwf	_ctrl_trf_session_owner,c
  4220  001548  504A               	movf	??_USBStdFeatureReqHandler& (0+255),w,c
  4221                           
  4222                           ;usb_device.c: 1556: pDst.bRam = (uint8_t*)&ep0BoEven+(SetupPkt.EPNum*8)+(SetupPkt.EPDir
      +                          *4)+4;
  4223  00154A  5040               	movf	_SetupPkt+4,w,c
  4224  00154C  0B0F               	andlw	15
  4225  00154E  6E4A               	movwf	??_USBStdFeatureReqHandler& (0+255),c
  4226  001550  504A               	movf	??_USBStdFeatureReqHandler,w,c
  4227  001552  0D08               	mullw	8
  4228  001554  0E00               	movlw	0	;volatile
  4229  001556  6E4B               	movwf	(??_USBStdFeatureReqHandler+1)& (0+255),c
  4230  001558  0E04               	movlw	4	;volatile
  4231  00155A  6E4C               	movwf	(??_USBStdFeatureReqHandler+2)& (0+255),c
  4232  00155C  50F3               	movf	prodl,w,c
  4233  00155E  264B               	addwf	??_USBStdFeatureReqHandler+1,f,c
  4234  001560  50F4               	movf	prodh,w,c
  4235  001562  224C               	addwfc	??_USBStdFeatureReqHandler+2,f,c
  4236  001564  AE40               	btfss	_SetupPkt+4,7,c
  4237  001566  D003               	goto	u1540
  4238  001568  6A4D               	clrf	(??_USBStdFeatureReqHandler+3)& (0+255),c
  4239  00156A  2A4D               	incf	(??_USBStdFeatureReqHandler+3)& (0+255),f,c
  4240  00156C  D001               	goto	u1548
  4241  00156E                     u1540:
  4242  00156E  6A4D               	clrf	(??_USBStdFeatureReqHandler+3)& (0+255),c
  4243  001570                     u1548:
  4244  001570  504D               	movf	??_USBStdFeatureReqHandler+3,w,c
  4245  001572  0D04               	mullw	4
  4246  001574  50F3               	movf	prodl,w,c
  4247  001576  264B               	addwf	??_USBStdFeatureReqHandler+1,f,c
  4248  001578  50F4               	movf	prodh,w,c
  4249  00157A  224C               	addwfc	??_USBStdFeatureReqHandler+2,f,c
  4250  00157C  0E04               	movlw	4
  4251  00157E  244B               	addwf	??_USBStdFeatureReqHandler+1,w,c
  4252  001580  6E12               	movwf	_pDst,c
  4253  001582  0E00               	movlw	0
  4254  001584  204C               	addwfc	??_USBStdFeatureReqHandler+2,w,c
  4255  001586  6E13               	movwf	_pDst+1,c
  4256                           
  4257                           ;usb_device.c: 1558: if(SetupPkt.bRequest == 3)
  4258  001588  503D               	movf	_SetupPkt+1,w,c
  4259  00158A  0A03               	xorlw	3
  4260  00158C  A4D8               	btfss	status,2,c
  4261  00158E  D006               	goto	l604
  4262                           
  4263                           ;usb_device.c: 1559: {
  4264                           ;usb_device.c: 1560: *pDst.bRam = 0x04;
  4265  001590  C012  FFD9         	movff	_pDst,fsr2l
  4266  001594  C013  FFDA         	movff	_pDst+1,fsr2h
  4267  001598  0E04               	movlw	4
  4268  00159A  D00E               	goto	L21
  4269  00159C                     l604:
  4270                           
  4271                           ;usb_device.c: 1563: else
  4272                           ;usb_device.c: 1564: {
  4273                           ;usb_device.c: 1565: if(SetupPkt.EPDir == 1)
  4274  00159C  AE40               	btfss	_SetupPkt+4,7,c
  4275  00159E  D007               	goto	l2619
  4276                           
  4277                           ;usb_device.c: 1566: *pDst.bRam = 0x00|0x40;
  4278  0015A0  C012  FFD9         	movff	_pDst,fsr2l
  4279  0015A4  C013  FFDA         	movff	_pDst+1,fsr2h
  4280  0015A8  0E40               	movlw	64
  4281  0015AA  6EDF               	movwf	indf2,c
  4282  0015AC  D00C               	goto	l608
  4283  0015AE                     l2619:
  4284                           
  4285                           ;usb_device.c: 1567: else
  4286                           ;usb_device.c: 1568: {
  4287                           ;usb_device.c: 1569: *pDst.bRam = 0x00|0x08;
  4288  0015AE  C012  FFD9         	movff	_pDst,fsr2l
  4289  0015B2  C013  FFDA         	movff	_pDst+1,fsr2h
  4290  0015B6  0E08               	movlw	8
  4291  0015B8                     L21:
  4292  0015B8  6EDF               	movwf	indf2,c
  4293                           
  4294                           ;usb_device.c: 1570: *pDst.bRam |= 0x80;
  4295  0015BA  C012  FFD9         	movff	_pDst,fsr2l
  4296  0015BE  C013  FFDA         	movff	_pDst+1,fsr2h
  4297  0015C2  0E00               	movlw	0
  4298  0015C4  8EDB               	bsf	plusw2,7,c
  4299  0015C6                     l608:
  4300  0015C6  0012               	return	
  4301  0015C8                     __end_of_USBStdFeatureReqHandler:
  4302                           	opt stack 0
  4303                           stkptr	equ	0xFFC
  4304                           tblptru	equ	0xFF8
  4305                           tblptrh	equ	0xFF7
  4306                           tblptrl	equ	0xFF6
  4307                           tablat	equ	0xFF5
  4308                           prodh	equ	0xFF4
  4309                           prodl	equ	0xFF3
  4310                           intcon	equ	0xFF2
  4311                           postinc0	equ	0xFEE
  4312                           wreg	equ	0xFE8
  4313                           indf1	equ	0xFE7
  4314                           fsr1h	equ	0xFE2
  4315                           fsr1l	equ	0xFE1
  4316                           indf2	equ	0xFDF
  4317                           postinc2	equ	0xFDE
  4318                           postdec2	equ	0xFDD
  4319                           plusw2	equ	0xFDB
  4320                           fsr2h	equ	0xFDA
  4321                           fsr2l	equ	0xFD9
  4322                           status	equ	0xFD8
  4323                           
  4324 ;; *************** function _USBCBCheckOtherReq *****************
  4325 ;; Defined at:
  4326 ;;		line 904 in file "../src/main.c"
  4327 ;; Parameters:    Size  Location     Type
  4328 ;;		None
  4329 ;; Auto vars:     Size  Location     Type
  4330 ;;		None
  4331 ;; Return value:  Size  Location     Type
  4332 ;;		None               void
  4333 ;; Registers used:
  4334 ;;		wreg, status,2, status,0, cstack
  4335 ;; Tracked objects:
  4336 ;;		On entry : 0/0
  4337 ;;		On exit  : 0/0
  4338 ;;		Unchanged: 0/0
  4339 ;; Data sizes:     COMRAM   BANK0   BANK1   BANK2   BANK3  BANK4h   BANK5   BANK6   BANK7
  4340 ;;      Params:         0       0       0       0       0       0       0       0       0
  4341 ;;      Locals:         0       0       0       0       0       0       0       0       0
  4342 ;;      Temps:          0       0       0       0       0       0       0       0       0
  4343 ;;      Totals:         0       0       0       0       0       0       0       0       0
  4344 ;;Total ram usage:        0 bytes
  4345 ;; Hardware stack levels used:    1
  4346 ;; Hardware stack levels required when called:    2
  4347 ;; This function calls:
  4348 ;;		_USBCheckHIDRequest
  4349 ;; This function is called by:
  4350 ;;		_USBCtrlTrfSetupHandler
  4351 ;; This function uses a non-reentrant model
  4352 ;;
  4353                           
  4354                           	psect	text18
  4355  001D84                     __ptext18:
  4356                           	opt stack 0
  4357  001D84                     _USBCBCheckOtherReq:
  4358                           	opt stack 25
  4359                           
  4360                           ;main.c: 906: USBCheckHIDRequest();
  4361                           
  4362                           ;incstack = 0
  4363  001D84  EC51  F008         	call	_USBCheckHIDRequest	;wreg free
  4364  001D88  0012               	return	
  4365  001D8A                     __end_of_USBCBCheckOtherReq:
  4366                           	opt stack 0
  4367                           stkptr	equ	0xFFC
  4368                           tblptru	equ	0xFF8
  4369                           tblptrh	equ	0xFF7
  4370                           tblptrl	equ	0xFF6
  4371                           tablat	equ	0xFF5
  4372                           prodh	equ	0xFF4
  4373                           prodl	equ	0xFF3
  4374                           intcon	equ	0xFF2
  4375                           postinc0	equ	0xFEE
  4376                           wreg	equ	0xFE8
  4377                           indf1	equ	0xFE7
  4378                           fsr1h	equ	0xFE2
  4379                           fsr1l	equ	0xFE1
  4380                           indf2	equ	0xFDF
  4381                           postinc2	equ	0xFDE
  4382                           postdec2	equ	0xFDD
  4383                           plusw2	equ	0xFDB
  4384                           fsr2h	equ	0xFDA
  4385                           fsr2l	equ	0xFD9
  4386                           status	equ	0xFD8
  4387                           
  4388 ;; *************** function _USBCheckHIDRequest *****************
  4389 ;; Defined at:
  4390 ;;		line 73 in file "../src/usb_device_hid.c"
  4391 ;; Parameters:    Size  Location     Type
  4392 ;;		None
  4393 ;; Auto vars:     Size  Location     Type
  4394 ;;		None
  4395 ;; Return value:  Size  Location     Type
  4396 ;;		None               void
  4397 ;; Registers used:
  4398 ;;		wreg, status,2, status,0, cstack
  4399 ;; Tracked objects:
  4400 ;;		On entry : 0/0
  4401 ;;		On exit  : 0/0
  4402 ;;		Unchanged: 0/0
  4403 ;; Data sizes:     COMRAM   BANK0   BANK1   BANK2   BANK3  BANK4h   BANK5   BANK6   BANK7
  4404 ;;      Params:         0       0       0       0       0       0       0       0       0
  4405 ;;      Locals:         0       0       0       0       0       0       0       0       0
  4406 ;;      Temps:          1       0       0       0       0       0       0       0       0
  4407 ;;      Totals:         1       0       0       0       0       0       0       0       0
  4408 ;;Total ram usage:        1 bytes
  4409 ;; Hardware stack levels used:    1
  4410 ;; Hardware stack levels required when called:    1
  4411 ;; This function calls:
  4412 ;;		_HIDGetReportHandler
  4413 ;;		_HIDSetReportHandler
  4414 ;; This function is called by:
  4415 ;;		_USBCBCheckOtherReq
  4416 ;; This function uses a non-reentrant model
  4417 ;;
  4418                           
  4419                           	psect	text19
  4420  0010A2                     __ptext19:
  4421                           	opt stack 0
  4422  0010A2                     _USBCheckHIDRequest:
  4423                           	opt stack 25
  4424                           
  4425                           ;usb_device_hid.c: 75: if(SetupPkt.Recipient != 1) return;
  4426                           
  4427                           ;incstack = 0
  4428  0010A2  503C               	movf	_SetupPkt,w,c
  4429  0010A4  0B1F               	andlw	31
  4430  0010A6  6E4A               	movwf	??_USBCheckHIDRequest& (0+255),c
  4431  0010A8  044A               	decf	??_USBCheckHIDRequest,w,c
  4432  0010AA  A4D8               	btfss	status,2,c
  4433  0010AC  D075               	goto	l667
  4434                           
  4435                           ;usb_device_hid.c: 76: if(SetupPkt.bIntfID != 0x00) return;
  4436  0010AE  5040               	movf	_SetupPkt+4,w,c
  4437  0010B0  A4D8               	btfss	status,2,c
  4438  0010B2  D072               	goto	l667
  4439                           
  4440                           ;usb_device_hid.c: 83: if(SetupPkt.bRequest == 6)
  4441  0010B4  503D               	movf	_SetupPkt+1,w,c
  4442  0010B6  0A06               	xorlw	6
  4443  0010B8  B4D8               	btfsc	status,2,c
  4444  0010BA  D020               	goto	l2677
  4445  0010BC  D028               	goto	l2679
  4446  0010BE                     l2661:
  4447                           
  4448                           ;usb_device_hid.c: 88: ctrl_trf_session_owner = 2;
  4449  0010BE  6E4A               	movwf	??_USBCheckHIDRequest& (0+255),c
  4450  0010C0  0E02               	movlw	2
  4451  0010C2  6E36               	movwf	_ctrl_trf_session_owner,c
  4452  0010C4  504A               	movf	??_USBCheckHIDRequest& (0+255),w,c
  4453                           
  4454                           ;usb_device_hid.c: 89: pSrc.bRom = &CFG01[18];
  4455  0010C6  0E08               	movlw	high (_CFG01+18)
  4456  0010C8  6E16               	movwf	_pSrc+1,c
  4457  0010CA  0E4D               	movlw	low (_CFG01+18)
  4458  0010CC  6E15               	movwf	_pSrc,c
  4459                           
  4460                           ;usb_device_hid.c: 90: wCount.Val = sizeof(USB_HID_DSC);
  4461  0010CE  0E00               	movlw	0
  4462  0010D0  6E45               	movwf	_wCount+1,c
  4463  0010D2  0E09               	movlw	9
  4464  0010D4  D011               	goto	L22
  4465  0010D6                     l2667:
  4466                           
  4467                           ;usb_device_hid.c: 93: ctrl_trf_session_owner = 2;
  4468  0010D6  6E4A               	movwf	??_USBCheckHIDRequest& (0+255),c
  4469  0010D8  0E02               	movlw	2
  4470  0010DA  6E36               	movwf	_ctrl_trf_session_owner,c
  4471  0010DC  504A               	movf	??_USBCheckHIDRequest& (0+255),w,c
  4472                           
  4473                           ;usb_device_hid.c: 94: { if(usb_active_cfg == 1) pSrc.bRom = (const uint8_t*)&hid_rpt01;
      +                           };
  4474  0010DE  0448               	decf	_usb_active_cfg,w,c
  4475  0010E0  A4D8               	btfss	status,2,c
  4476  0010E2  D004               	goto	l674
  4477  0010E4  0E08               	movlw	high _hid_rpt01
  4478  0010E6  6E16               	movwf	_pSrc+1,c
  4479  0010E8  0E8A               	movlw	low _hid_rpt01
  4480  0010EA  6E15               	movwf	_pSrc,c
  4481  0010EC                     l674:
  4482                           
  4483                           ;usb_device_hid.c: 95: { if(usb_active_cfg == 1) wCount.Val = sizeof(hid_rpt01); };
  4484  0010EC  0448               	decf	_usb_active_cfg,w,c
  4485  0010EE  A4D8               	btfss	status,2,c
  4486  0010F0  D00D               	goto	l672
  4487  0010F2  0E00               	movlw	0
  4488  0010F4  6E45               	movwf	_wCount+1,c
  4489  0010F6  0E1D               	movlw	29
  4490  0010F8                     L22:
  4491  0010F8  6E44               	movwf	_wCount,c
  4492  0010FA  D008               	goto	l672
  4493  0010FC                     l2677:
  4494  0010FC  503F               	movf	_SetupPkt+3,w,c
  4495                           
  4496                           ; Switch size 1, requested type "space"
  4497                           ; Number of cases is 3, Range of values is 33 to 35
  4498                           ; switch strategies available:
  4499                           ; Name         Instructions Cycles
  4500                           ; simple_byte           10     6 (average)
  4501                           ;	Chosen strategy is simple_byte
  4502  0010FE  0A21               	xorlw	33	; case 33
  4503  001100  B4D8               	btfsc	status,2,c
  4504  001102  D7DD               	goto	l2661
  4505  001104  0A03               	xorlw	3	; case 34
  4506  001106  B4D8               	btfsc	status,2,c
  4507  001108  D7E6               	goto	l2667
  4508  00110A  0A01               	xorlw	1	; case 35
  4509  00110C                     l672:
  4510                           
  4511                           ;usb_device_hid.c: 101: usb_stat.ctrl_trf_mem = 1;
  4512  00110C  823B               	bsf	_usb_stat,1,c
  4513  00110E                     l2679:
  4514                           
  4515                           ;usb_device_hid.c: 102: }
  4516                           ;usb_device_hid.c: 104: if(SetupPkt.RequestType != 0x01) return;
  4517  00110E  383C               	swapf	_SetupPkt,w,c
  4518  001110  32E8               	rrcf	wreg,f,c
  4519  001112  0B03               	andlw	3
  4520  001114  6E4A               	movwf	??_USBCheckHIDRequest& (0+255),c
  4521  001116  044A               	decf	??_USBCheckHIDRequest,w,c
  4522  001118  A4D8               	btfss	status,2,c
  4523  00111A  D03E               	goto	l667
  4524  00111C  D02A               	goto	l2713
  4525  00111E                     l2683:
  4526                           
  4527                           ;usb_device_hid.c: 108: HIDGetReportHandler();
  4528  00111E  ECC6  F00E         	call	_HIDGetReportHandler	;wreg free
  4529                           
  4530                           ;usb_device_hid.c: 109: break;
  4531  001122  D03A               	goto	l667
  4532  001124                     l2685:
  4533                           
  4534                           ;usb_device_hid.c: 111: HIDSetReportHandler();
  4535  001124  ECC5  F00E         	call	_HIDSetReportHandler	;wreg free
  4536                           
  4537                           ;usb_device_hid.c: 112: break;
  4538  001128  D037               	goto	l667
  4539  00112A                     l2687:
  4540                           
  4541                           ;usb_device_hid.c: 114: ctrl_trf_session_owner = 2;
  4542  00112A  6E4A               	movwf	??_USBCheckHIDRequest& (0+255),c
  4543  00112C  0E02               	movlw	2
  4544  00112E  6E36               	movwf	_ctrl_trf_session_owner,c
  4545  001130  504A               	movf	??_USBCheckHIDRequest& (0+255),w,c
  4546                           
  4547                           ;usb_device_hid.c: 115: pSrc.bRam = (uint8_t*)&idle_rate;
  4548  001132  0E00               	movlw	high _idle_rate
  4549  001134  6E16               	movwf	_pSrc+1,c
  4550  001136  0E47               	movlw	low _idle_rate
  4551  001138  D00E               	goto	L23
  4552  00113A                     l2695:
  4553                           
  4554                           ;usb_device_hid.c: 120: ctrl_trf_session_owner = 2;
  4555  00113A  6E4A               	movwf	??_USBCheckHIDRequest& (0+255),c
  4556  00113C  0E02               	movlw	2
  4557  00113E  6E36               	movwf	_ctrl_trf_session_owner,c
  4558  001140  504A               	movf	??_USBCheckHIDRequest& (0+255),w,c
  4559                           
  4560                           ;usb_device_hid.c: 122: idle_rate = SetupPkt.W_Value.v[1];
  4561  001142  C03F  F047         	movff	_SetupPkt+3,_idle_rate
  4562                           
  4563                           ;usb_device_hid.c: 123: break;
  4564  001146  D028               	goto	l667
  4565  001148                     l2699:
  4566                           
  4567                           ;usb_device_hid.c: 125: ctrl_trf_session_owner = 2;
  4568  001148  6E4A               	movwf	??_USBCheckHIDRequest& (0+255),c
  4569  00114A  0E02               	movlw	2
  4570  00114C  6E36               	movwf	_ctrl_trf_session_owner,c
  4571  00114E  504A               	movf	??_USBCheckHIDRequest& (0+255),w,c
  4572                           
  4573                           ;usb_device_hid.c: 126: pSrc.bRam = (uint8_t*)&active_protocol;
  4574  001150  0E00               	movlw	high _active_protocol
  4575  001152  6E16               	movwf	_pSrc+1,c
  4576  001154  0E46               	movlw	low _active_protocol
  4577  001156                     L23:
  4578  001156  6E15               	movwf	_pSrc,c
  4579                           
  4580                           ;usb_device_hid.c: 127: usb_stat.ctrl_trf_mem = 0;
  4581  001158  923B               	bcf	_usb_stat,1,c
  4582                           
  4583                           ;usb_device_hid.c: 128: wCount.v[0] = 1;
  4584  00115A  6E4A               	movwf	??_USBCheckHIDRequest& (0+255),c
  4585  00115C  0E01               	movlw	1
  4586  00115E  6E44               	movwf	_wCount,c
  4587  001160  504A               	movf	??_USBCheckHIDRequest& (0+255),w,c
  4588                           
  4589                           ;usb_device_hid.c: 129: break;
  4590  001162  D01A               	goto	l667
  4591  001164                     l2707:
  4592                           
  4593                           ;usb_device_hid.c: 131: ctrl_trf_session_owner = 2;
  4594  001164  6E4A               	movwf	??_USBCheckHIDRequest& (0+255),c
  4595  001166  0E02               	movlw	2
  4596  001168  6E36               	movwf	_ctrl_trf_session_owner,c
  4597  00116A  504A               	movf	??_USBCheckHIDRequest& (0+255),w,c
  4598                           
  4599                           ;usb_device_hid.c: 133: active_protocol = SetupPkt.W_Value.v[0];
  4600  00116C  C03E  F046         	movff	_SetupPkt+2,_active_protocol
  4601                           
  4602                           ;usb_device_hid.c: 134: break;
  4603  001170  D013               	goto	l667
  4604  001172                     l2713:
  4605  001172  503D               	movf	_SetupPkt+1,w,c
  4606                           
  4607                           ; Switch size 1, requested type "space"
  4608                           ; Number of cases is 6, Range of values is 1 to 11
  4609                           ; switch strategies available:
  4610                           ; Name         Instructions Cycles
  4611                           ; simple_byte           19    10 (average)
  4612                           ;	Chosen strategy is simple_byte
  4613  001174  0A01               	xorlw	1	; case 1
  4614  001176  B4D8               	btfsc	status,2,c
  4615  001178  D7D2               	goto	l2683
  4616  00117A  0A03               	xorlw	3	; case 2
  4617  00117C  B4D8               	btfsc	status,2,c
  4618  00117E  D7D5               	goto	l2687
  4619  001180  0A01               	xorlw	1	; case 3
  4620  001182  B4D8               	btfsc	status,2,c
  4621  001184  D7E1               	goto	l2699
  4622  001186  0A0A               	xorlw	10	; case 9
  4623  001188  B4D8               	btfsc	status,2,c
  4624  00118A  D7CC               	goto	l2685
  4625  00118C  0A03               	xorlw	3	; case 10
  4626  00118E  B4D8               	btfsc	status,2,c
  4627  001190  D7D4               	goto	l2695
  4628  001192  0A01               	xorlw	1	; case 11
  4629  001194  B4D8               	btfsc	status,2,c
  4630  001196  D7E6               	goto	l2707
  4631  001198                     l667:
  4632  001198  0012               	return	
  4633  00119A                     __end_of_USBCheckHIDRequest:
  4634                           	opt stack 0
  4635                           stkptr	equ	0xFFC
  4636                           tblptru	equ	0xFF8
  4637                           tblptrh	equ	0xFF7
  4638                           tblptrl	equ	0xFF6
  4639                           tablat	equ	0xFF5
  4640                           prodh	equ	0xFF4
  4641                           prodl	equ	0xFF3
  4642                           intcon	equ	0xFF2
  4643                           postinc0	equ	0xFEE
  4644                           wreg	equ	0xFE8
  4645                           indf1	equ	0xFE7
  4646                           fsr1h	equ	0xFE2
  4647                           fsr1l	equ	0xFE1
  4648                           indf2	equ	0xFDF
  4649                           postinc2	equ	0xFDE
  4650                           postdec2	equ	0xFDD
  4651                           plusw2	equ	0xFDB
  4652                           fsr2h	equ	0xFDA
  4653                           fsr2l	equ	0xFD9
  4654                           status	equ	0xFD8
  4655                           
  4656 ;; *************** function _HIDSetReportHandler *****************
  4657 ;; Defined at:
  4658 ;;		line 144 in file "../src/usb_device_hid.c"
  4659 ;; Parameters:    Size  Location     Type
  4660 ;;		None
  4661 ;; Auto vars:     Size  Location     Type
  4662 ;;		None
  4663 ;; Return value:  Size  Location     Type
  4664 ;;		None               void
  4665 ;; Registers used:
  4666 ;;		None
  4667 ;; Tracked objects:
  4668 ;;		On entry : 0/0
  4669 ;;		On exit  : 0/0
  4670 ;;		Unchanged: 0/0
  4671 ;; Data sizes:     COMRAM   BANK0   BANK1   BANK2   BANK3  BANK4h   BANK5   BANK6   BANK7
  4672 ;;      Params:         0       0       0       0       0       0       0       0       0
  4673 ;;      Locals:         0       0       0       0       0       0       0       0       0
  4674 ;;      Temps:          0       0       0       0       0       0       0       0       0
  4675 ;;      Totals:         0       0       0       0       0       0       0       0       0
  4676 ;;Total ram usage:        0 bytes
  4677 ;; Hardware stack levels used:    1
  4678 ;; This function calls:
  4679 ;;		Nothing
  4680 ;; This function is called by:
  4681 ;;		_USBCheckHIDRequest
  4682 ;; This function uses a non-reentrant model
  4683 ;;
  4684                           
  4685                           	psect	text20
  4686  001D8A                     __ptext20:
  4687                           	opt stack 0
  4688  001D8A                     _HIDSetReportHandler:
  4689                           	opt stack 25
  4690                           
  4691                           ;incstack = 0
  4692  001D8A  0012               	return	
  4693  001D8C                     __end_of_HIDSetReportHandler:
  4694                           	opt stack 0
  4695                           stkptr	equ	0xFFC
  4696                           tblptru	equ	0xFF8
  4697                           tblptrh	equ	0xFF7
  4698                           tblptrl	equ	0xFF6
  4699                           tablat	equ	0xFF5
  4700                           prodh	equ	0xFF4
  4701                           prodl	equ	0xFF3
  4702                           intcon	equ	0xFF2
  4703                           postinc0	equ	0xFEE
  4704                           wreg	equ	0xFE8
  4705                           indf1	equ	0xFE7
  4706                           fsr1h	equ	0xFE2
  4707                           fsr1l	equ	0xFE1
  4708                           indf2	equ	0xFDF
  4709                           postinc2	equ	0xFDE
  4710                           postdec2	equ	0xFDD
  4711                           plusw2	equ	0xFDB
  4712                           fsr2h	equ	0xFDA
  4713                           fsr2l	equ	0xFD9
  4714                           status	equ	0xFD8
  4715                           
  4716 ;; *************** function _HIDGetReportHandler *****************
  4717 ;; Defined at:
  4718 ;;		line 139 in file "../src/usb_device_hid.c"
  4719 ;; Parameters:    Size  Location     Type
  4720 ;;		None
  4721 ;; Auto vars:     Size  Location     Type
  4722 ;;		None
  4723 ;; Return value:  Size  Location     Type
  4724 ;;		None               void
  4725 ;; Registers used:
  4726 ;;		None
  4727 ;; Tracked objects:
  4728 ;;		On entry : 0/0
  4729 ;;		On exit  : 0/0
  4730 ;;		Unchanged: 0/0
  4731 ;; Data sizes:     COMRAM   BANK0   BANK1   BANK2   BANK3  BANK4h   BANK5   BANK6   BANK7
  4732 ;;      Params:         0       0       0       0       0       0       0       0       0
  4733 ;;      Locals:         0       0       0       0       0       0       0       0       0
  4734 ;;      Temps:          0       0       0       0       0       0       0       0       0
  4735 ;;      Totals:         0       0       0       0       0       0       0       0       0
  4736 ;;Total ram usage:        0 bytes
  4737 ;; Hardware stack levels used:    1
  4738 ;; This function calls:
  4739 ;;		Nothing
  4740 ;; This function is called by:
  4741 ;;		_USBCheckHIDRequest
  4742 ;; This function uses a non-reentrant model
  4743 ;;
  4744                           
  4745                           	psect	text21
  4746  001D8C                     __ptext21:
  4747                           	opt stack 0
  4748  001D8C                     _HIDGetReportHandler:
  4749                           	opt stack 25
  4750                           
  4751                           ;incstack = 0
  4752  001D8C  0012               	return	
  4753  001D8E                     __end_of_HIDGetReportHandler:
  4754                           	opt stack 0
  4755                           stkptr	equ	0xFFC
  4756                           tblptru	equ	0xFF8
  4757                           tblptrh	equ	0xFF7
  4758                           tblptrl	equ	0xFF6
  4759                           tablat	equ	0xFF5
  4760                           prodh	equ	0xFF4
  4761                           prodl	equ	0xFF3
  4762                           intcon	equ	0xFF2
  4763                           postinc0	equ	0xFEE
  4764                           wreg	equ	0xFE8
  4765                           indf1	equ	0xFE7
  4766                           fsr1h	equ	0xFE2
  4767                           fsr1l	equ	0xFE1
  4768                           indf2	equ	0xFDF
  4769                           postinc2	equ	0xFDE
  4770                           postdec2	equ	0xFDD
  4771                           plusw2	equ	0xFDB
  4772                           fsr2h	equ	0xFDA
  4773                           fsr2l	equ	0xFD9
  4774                           status	equ	0xFD8
  4775                           
  4776 ;; *************** function _USBCtrlTrfInHandler *****************
  4777 ;; Defined at:
  4778 ;;		line 1016 in file "../src/usb_device.c"
  4779 ;; Parameters:    Size  Location     Type
  4780 ;;		None
  4781 ;; Auto vars:     Size  Location     Type
  4782 ;;		None
  4783 ;; Return value:  Size  Location     Type
  4784 ;;		None               void
  4785 ;; Registers used:
  4786 ;;		wreg, fsr1l, fsr1h, fsr2l, fsr2h, status,2, status,0, tblptrl, tblptrh, tblptru, cstack
  4787 ;; Tracked objects:
  4788 ;;		On entry : 0/0
  4789 ;;		On exit  : 0/0
  4790 ;;		Unchanged: 0/0
  4791 ;; Data sizes:     COMRAM   BANK0   BANK1   BANK2   BANK3  BANK4h   BANK5   BANK6   BANK7
  4792 ;;      Params:         0       0       0       0       0       0       0       0       0
  4793 ;;      Locals:         0       0       0       0       0       0       0       0       0
  4794 ;;      Temps:          1       0       0       0       0       0       0       0       0
  4795 ;;      Totals:         1       0       0       0       0       0       0       0       0
  4796 ;;Total ram usage:        1 bytes
  4797 ;; Hardware stack levels used:    1
  4798 ;; Hardware stack levels required when called:    1
  4799 ;; This function calls:
  4800 ;;		_USBCtrlTrfTxService
  4801 ;; This function is called by:
  4802 ;;		_USBDeviceTasks
  4803 ;; This function uses a non-reentrant model
  4804 ;;
  4805                           
  4806                           	psect	text22
  4807  001B90                     __ptext22:
  4808                           	opt stack 0
  4809  001B90                     _USBCtrlTrfInHandler:
  4810                           	opt stack 27
  4811                           
  4812                           ;usb_device.c: 1021: if(usb_device_state == 4)
  4813                           
  4814                           ;incstack = 0
  4815  001B90  503A               	movf	_usb_device_state,w,c
  4816  001B92  0A04               	xorlw	4
  4817  001B94  A4D8               	btfss	status,2,c
  4818  001B96  D00C               	goto	l2743
  4819                           
  4820                           ;usb_device.c: 1022: {
  4821                           ;usb_device.c: 1023: UADDR = SetupPkt.bDevADR;
  4822  001B98  C03E  FF6E         	movff	_SetupPkt+2,3950	;volatile
  4823                           
  4824                           ;usb_device.c: 1024: if(UADDR > 0)
  4825  001B9C  506E               	movf	3950,w,c	;volatile
  4826  001B9E  B4D8               	btfsc	status,2,c
  4827  001BA0  D003               	goto	l2741
  4828                           
  4829                           ;usb_device.c: 1025: usb_device_state = 5;
  4830  001BA2  6E4B               	movwf	??_USBCtrlTrfInHandler& (0+255),c
  4831  001BA4  0E05               	movlw	5
  4832  001BA6  D002               	goto	L24
  4833  001BA8                     l2741:
  4834                           
  4835                           ;usb_device.c: 1026: else
  4836                           ;usb_device.c: 1027: usb_device_state = 3;
  4837  001BA8  6E4B               	movwf	??_USBCtrlTrfInHandler& (0+255),c
  4838  001BAA  0E03               	movlw	3
  4839  001BAC                     L24:
  4840  001BAC  6E3A               	movwf	_usb_device_state,c
  4841  001BAE  504B               	movf	??_USBCtrlTrfInHandler& (0+255),w,c
  4842  001BB0                     l2743:
  4843                           
  4844                           ;usb_device.c: 1028: }
  4845                           ;usb_device.c: 1032: if(ctrl_trf_state == 1)
  4846  001BB0  0437               	decf	_ctrl_trf_state,w,c
  4847  001BB2  A4D8               	btfss	status,2,c
  4848  001BB4  D014               	goto	l517
  4849                           
  4850                           ;usb_device.c: 1033: {
  4851                           ;usb_device.c: 1036: USBCtrlTrfTxService();
  4852  001BB6  ECE4  F00A         	call	_USBCtrlTrfTxService	;wreg free
  4853                           
  4854                           ;usb_device.c: 1039: if(short_pkt_status == 2)
  4855  001BBA  5039               	movf	_short_pkt_status,w,c
  4856  001BBC  0A02               	xorlw	2
  4857  001BBE  A4D8               	btfss	status,2,c
  4858  001BC0  D002               	goto	l512
  4859                           
  4860                           ;usb_device.c: 1040: {
  4861                           ;usb_device.c: 1043: ep0Bi.Stat._byte = 0x04;
  4862  001BC2  0E04               	movlw	4
  4863  001BC4  D006               	goto	L25
  4864  001BC6                     l512:
  4865                           
  4866                           ;usb_device.c: 1046: else
  4867                           ;usb_device.c: 1047: {
  4868                           ;usb_device.c: 1049: if(ep0Bi.Stat.DTS == 0)
  4869  001BC6  0104               	movlb	4	; () banked
  4870  001BC8  BD08               	btfsc	8,6,b	;volatile
  4871  001BCA  D002               	goto	l2755
  4872                           
  4873                           ; BSR set to: 4
  4874                           ;usb_device.c: 1050: ep0Bi.Stat._byte = 0x40|0x08;
  4875  001BCC  0E48               	movlw	72
  4876  001BCE  D001               	goto	L25
  4877  001BD0                     l2755:
  4878                           
  4879                           ; BSR set to: 4
  4880                           ;usb_device.c: 1051: else
  4881                           ;usb_device.c: 1052: ep0Bi.Stat._byte = 0x00|0x08;
  4882  001BD0  0E08               	movlw	8
  4883  001BD2                     L25:
  4884  001BD2  0104               	movlb	4	; () banked
  4885  001BD4  0104               	movlb	4	; () banked
  4886  001BD6  6F08               	movwf	8,b	;volatile
  4887                           
  4888                           ; BSR set to: 4
  4889                           ;usb_device.c: 1054: ep0Bi.Stat._byte |= 0x80;
  4890                           
  4891                           ; BSR set to: 4
  4892  001BD8  0104               	movlb	4	; () banked
  4893  001BDA  0104               	movlb	4	; () banked
  4894  001BDC  8F08               	bsf	8,7,b	;volatile
  4895  001BDE                     l517:
  4896  001BDE  0012               	return	
  4897  001BE0                     __end_of_USBCtrlTrfInHandler:
  4898                           	opt stack 0
  4899                           stkptr	equ	0xFFC
  4900                           tblptru	equ	0xFF8
  4901                           tblptrh	equ	0xFF7
  4902                           tblptrl	equ	0xFF6
  4903                           tablat	equ	0xFF5
  4904                           prodh	equ	0xFF4
  4905                           prodl	equ	0xFF3
  4906                           intcon	equ	0xFF2
  4907                           postinc0	equ	0xFEE
  4908                           wreg	equ	0xFE8
  4909                           indf1	equ	0xFE7
  4910                           fsr1h	equ	0xFE2
  4911                           fsr1l	equ	0xFE1
  4912                           indf2	equ	0xFDF
  4913                           postinc2	equ	0xFDE
  4914                           postdec2	equ	0xFDD
  4915                           plusw2	equ	0xFDB
  4916                           fsr2h	equ	0xFDA
  4917                           fsr2l	equ	0xFD9
  4918                           status	equ	0xFD8
  4919                           
  4920 ;; *************** function _USBCtrlTrfTxService *****************
  4921 ;; Defined at:
  4922 ;;		line 1086 in file "../src/usb_device.c"
  4923 ;; Parameters:    Size  Location     Type
  4924 ;;		None
  4925 ;; Auto vars:     Size  Location     Type
  4926 ;;		None
  4927 ;; Return value:  Size  Location     Type
  4928 ;;		None               void
  4929 ;; Registers used:
  4930 ;;		wreg, fsr1l, fsr1h, fsr2l, fsr2h, status,2, status,0, tblptrl, tblptrh, tblptru
  4931 ;; Tracked objects:
  4932 ;;		On entry : 0/0
  4933 ;;		On exit  : 0/0
  4934 ;;		Unchanged: 0/0
  4935 ;; Data sizes:     COMRAM   BANK0   BANK1   BANK2   BANK3  BANK4h   BANK5   BANK6   BANK7
  4936 ;;      Params:         0       0       0       0       0       0       0       0       0
  4937 ;;      Locals:         0       0       0       0       0       0       0       0       0
  4938 ;;      Temps:          1       0       0       0       0       0       0       0       0
  4939 ;;      Totals:         1       0       0       0       0       0       0       0       0
  4940 ;;Total ram usage:        1 bytes
  4941 ;; Hardware stack levels used:    1
  4942 ;; This function calls:
  4943 ;;		Nothing
  4944 ;; This function is called by:
  4945 ;;		_USBCtrlTrfInHandler
  4946 ;;		_USBCtrlEPServiceComplete
  4947 ;; This function uses a non-reentrant model
  4948 ;;
  4949                           
  4950                           	psect	text23
  4951  0015C8                     __ptext23:
  4952                           	opt stack 0
  4953  0015C8                     _USBCtrlTrfTxService:
  4954                           	opt stack 26
  4955                           
  4956                           ;usb_device.c: 1088: static uint8_t bytes_to_send;
  4957                           ;usb_device.c: 1093: bytes_to_send = 8;
  4958                           
  4959                           ;incstack = 0
  4960  0015C8  6E4A               	movwf	??_USBCtrlTrfTxService& (0+255),c
  4961  0015CA  0E08               	movlw	8
  4962  0015CC  6E26               	movwf	USBCtrlTrfTxService@bytes_to_send,c
  4963  0015CE  504A               	movf	??_USBCtrlTrfTxService& (0+255),w,c
  4964                           
  4965                           ;usb_device.c: 1094: if(wCount.Val < 8)
  4966  0015D0  0E08               	movlw	8
  4967  0015D2  5C44               	subwf	_wCount,w,c
  4968  0015D4  0E00               	movlw	0
  4969  0015D6  5845               	subwfb	_wCount+1,w,c
  4970  0015D8  B0D8               	btfsc	status,0,c
  4971  0015DA  D00E               	goto	l2505
  4972                           
  4973                           ;usb_device.c: 1095: {
  4974                           ;usb_device.c: 1098: bytes_to_send = wCount.Val;
  4975  0015DC  C044  F026         	movff	_wCount,USBCtrlTrfTxService@bytes_to_send
  4976                           
  4977                           ;usb_device.c: 1099: if(short_pkt_status == 0)
  4978  0015E0  6639               	tstfsz	_short_pkt_status,c
  4979  0015E2  D003               	goto	l2501
  4980                           
  4981                           ;usb_device.c: 1100: {
  4982                           ;usb_device.c: 1101: short_pkt_status = 1;
  4983  0015E4  6E4A               	movwf	??_USBCtrlTrfTxService& (0+255),c
  4984  0015E6  0E01               	movlw	1
  4985  0015E8  D005               	goto	L26
  4986  0015EA                     l2501:
  4987                           
  4988                           ;usb_device.c: 1103: else if(short_pkt_status == 1)
  4989  0015EA  0439               	decf	_short_pkt_status,w,c
  4990  0015EC  A4D8               	btfss	status,2,c
  4991  0015EE  D004               	goto	l2505
  4992                           
  4993                           ;usb_device.c: 1104: {
  4994                           ;usb_device.c: 1105: short_pkt_status = 2;
  4995  0015F0  6E4A               	movwf	??_USBCtrlTrfTxService& (0+255),c
  4996  0015F2  0E02               	movlw	2
  4997  0015F4                     L26:
  4998  0015F4  6E39               	movwf	_short_pkt_status,c
  4999  0015F6  504A               	movf	??_USBCtrlTrfTxService& (0+255),w,c
  5000  0015F8                     l2505:
  5001                           
  5002                           ;usb_device.c: 1106: }
  5003                           ;usb_device.c: 1107: }
  5004                           ;usb_device.c: 1110: ep0Bi.Cnt = bytes_to_send;
  5005  0015F8  C026  F409         	movff	USBCtrlTrfTxService@bytes_to_send,1033	;volatile
  5006                           
  5007                           ;usb_device.c: 1113: wCount.Val -= bytes_to_send;
  5008  0015FC  5026               	movf	USBCtrlTrfTxService@bytes_to_send,w,c
  5009  0015FE  5E44               	subwf	_wCount,f,c
  5010  001600  0E00               	movlw	0
  5011  001602  5A45               	subwfb	_wCount+1,f,c
  5012                           
  5013                           ;usb_device.c: 1118: pDst.bRam = (uint8_t*)&CtrlTrfData;
  5014  001604  0104               	movlb	4	; () banked
  5015  001606  0E04               	movlw	4	;volatile
  5016  001608  6E13               	movwf	_pDst+1,c
  5017  00160A  0104               	movlb	4	; () banked
  5018  00160C  0E24               	movlw	36	;volatile
  5019  00160E  6E12               	movwf	_pDst,c
  5020                           
  5021                           ; BSR set to: 4
  5022                           ;usb_device.c: 1119: if(usb_stat.ctrl_trf_mem == 1)
  5023  001610  B23B               	btfsc	_usb_stat,1,c
  5024  001612  D01B               	goto	l2523
  5025  001614  D037               	goto	l2533
  5026  001616                     l2515:
  5027                           
  5028                           ;usb_device.c: 1122: {
  5029                           ;usb_device.c: 1123: *pDst.bRam = *pSrc.bRom;
  5030  001616  C015  FFF6         	movff	_pSrc,tblptrl
  5031  00161A  C016  FFF7         	movff	_pSrc+1,tblptrh
  5032  00161E  6AF8               	clrf	tblptru,c
  5033  001620  C012  FFD9         	movff	_pDst,fsr2l
  5034  001624  C013  FFDA         	movff	_pDst+1,fsr2h
  5035  001628  0E07               	movlw	(high __ramtop+-1)
  5036  00162A  64F7               	cpfsgt	tblptrh,c
  5037  00162C  D003               	bra	u1377
  5038  00162E  0008               	tblrd		*
  5039  001630  50F5               	movf	tablat,w,c
  5040  001632  D005               	bra	u1370
  5041  001634                     u1377:
  5042  001634  CFF6 FFE1          	movff	tblptrl,fsr1l
  5043  001638  CFF7 FFE2          	movff	tblptrh,fsr1h
  5044  00163C  50E7               	movf	indf1,w,c
  5045  00163E                     u1370:
  5046  00163E  6EDF               	movwf	indf2,c
  5047                           
  5048                           ;usb_device.c: 1124: pDst.bRam++;
  5049  001640  4A12               	infsnz	_pDst,f,c
  5050  001642  2A13               	incf	_pDst+1,f,c
  5051                           
  5052                           ;usb_device.c: 1125: pSrc.bRom++;
  5053  001644  4A15               	infsnz	_pSrc,f,c
  5054  001646  2A16               	incf	_pSrc+1,f,c
  5055                           
  5056                           ;usb_device.c: 1126: bytes_to_send--;
  5057  001648  0626               	decf	USBCtrlTrfTxService@bytes_to_send,f,c
  5058  00164A                     l2523:
  5059  00164A  6626               	tstfsz	USBCtrlTrfTxService@bytes_to_send,c
  5060  00164C  D7E4               	goto	l2515
  5061  00164E  D01C               	goto	l534
  5062  001650                     l2525:
  5063                           
  5064                           ;usb_device.c: 1132: {
  5065                           ;usb_device.c: 1133: *pDst.bRam = *pSrc.bRam;
  5066  001650  C015  FFF6         	movff	_pSrc,tblptrl
  5067  001654  C016  FFF7         	movff	_pSrc+1,tblptrh
  5068  001658  6AF8               	clrf	tblptru,c
  5069  00165A  C012  FFD9         	movff	_pDst,fsr2l
  5070  00165E  C013  FFDA         	movff	_pDst+1,fsr2h
  5071  001662  0E07               	movlw	(high __ramtop+-1)
  5072  001664  64F7               	cpfsgt	tblptrh,c
  5073  001666  D003               	bra	u1397
  5074  001668  0008               	tblrd		*
  5075  00166A  50F5               	movf	tablat,w,c
  5076  00166C  D005               	bra	u1390
  5077  00166E                     u1397:
  5078  00166E  CFF6 FFE1          	movff	tblptrl,fsr1l
  5079  001672  CFF7 FFE2          	movff	tblptrh,fsr1h
  5080  001676  50E7               	movf	indf1,w,c
  5081  001678                     u1390:
  5082  001678  6EDF               	movwf	indf2,c
  5083                           
  5084                           ;usb_device.c: 1134: pDst.bRam++;
  5085  00167A  4A12               	infsnz	_pDst,f,c
  5086  00167C  2A13               	incf	_pDst+1,f,c
  5087                           
  5088                           ;usb_device.c: 1135: pSrc.bRam++;
  5089  00167E  4A15               	infsnz	_pSrc,f,c
  5090  001680  2A16               	incf	_pSrc+1,f,c
  5091                           
  5092                           ;usb_device.c: 1136: bytes_to_send--;
  5093  001682  0626               	decf	USBCtrlTrfTxService@bytes_to_send,f,c
  5094  001684                     l2533:
  5095  001684  6626               	tstfsz	USBCtrlTrfTxService@bytes_to_send,c
  5096  001686  D7E4               	goto	l2525
  5097  001688                     l534:
  5098  001688  0012               	return	
  5099  00168A                     __end_of_USBCtrlTrfTxService:
  5100                           	opt stack 0
  5101                           stkptr	equ	0xFFC
  5102                           tblptru	equ	0xFF8
  5103                           tblptrh	equ	0xFF7
  5104                           tblptrl	equ	0xFF6
  5105                           tablat	equ	0xFF5
  5106                           prodh	equ	0xFF4
  5107                           prodl	equ	0xFF3
  5108                           intcon	equ	0xFF2
  5109                           postinc0	equ	0xFEE
  5110                           wreg	equ	0xFE8
  5111                           indf1	equ	0xFE7
  5112                           fsr1h	equ	0xFE2
  5113                           fsr1l	equ	0xFE1
  5114                           indf2	equ	0xFDF
  5115                           postinc2	equ	0xFDE
  5116                           postdec2	equ	0xFDD
  5117                           plusw2	equ	0xFDB
  5118                           fsr2h	equ	0xFDA
  5119                           fsr2l	equ	0xFD9
  5120                           status	equ	0xFD8
  5121                           
  5122 ;; *************** function _SignFlash *****************
  5123 ;; Defined at:
  5124 ;;		line 618 in file "../src/BootPIC18NonJ.c"
  5125 ;; Parameters:    Size  Location     Type
  5126 ;;		None
  5127 ;; Auto vars:     Size  Location     Type
  5128 ;;		None
  5129 ;; Return value:  Size  Location     Type
  5130 ;;		None               void
  5131 ;; Registers used:
  5132 ;;		wreg, fsr2l, fsr2h, status,2, status,0, tblptrl, tblptrh, tblptru, prodl, prodh, cstack
  5133 ;; Tracked objects:
  5134 ;;		On entry : 0/0
  5135 ;;		On exit  : 0/0
  5136 ;;		Unchanged: 0/0
  5137 ;; Data sizes:     COMRAM   BANK0   BANK1   BANK2   BANK3  BANK4h   BANK5   BANK6   BANK7
  5138 ;;      Params:         0       0       0       0       0       0       0       0       0
  5139 ;;      Locals:         0       0       0       0       0       0       0       0       0
  5140 ;;      Temps:          4       0       0       0       0       0       0       0       0
  5141 ;;      Totals:         4       0       0       0       0       0       0       0       0
  5142 ;;Total ram usage:        4 bytes
  5143 ;; Hardware stack levels used:    1
  5144 ;; Hardware stack levels required when called:    2
  5145 ;; This function calls:
  5146 ;;		_ClearWatchdog
  5147 ;;		_UnlockAndActivate
  5148 ;; This function is called by:
  5149 ;;		_ProcessIO
  5150 ;; This function uses a non-reentrant model
  5151 ;;
  5152                           
  5153                           	psect	text24
  5154  000E84                     __ptext24:
  5155                           	opt stack 0
  5156  000E84                     _SignFlash:
  5157                           	opt stack 26
  5158                           
  5159                           ;BootPIC18NonJ.c: 620: static unsigned char i;
  5160                           ;BootPIC18NonJ.c: 621: static const uint8_t* pROM;
  5161                           ;BootPIC18NonJ.c: 625: pROM = (const uint8_t*)(0x2006 & (uint32_t)(0x1000000 - 64));
  5162                           
  5163                           ;incstack = 0
  5164  000E84  0E00               	movlw	0
  5165  000E86  6E0E               	movwf	SignFlash@pROM+2,c
  5166  000E88  0E20               	movlw	32
  5167  000E8A  6E0D               	movwf	SignFlash@pROM+1,c
  5168  000E8C  0E00               	movlw	0
  5169  000E8E  6E0C               	movwf	SignFlash@pROM,c
  5170                           
  5171                           ;BootPIC18NonJ.c: 626: for(i = 0; i < 64; i++)
  5172  000E90  6E4B               	movwf	??_SignFlash& (0+255),c
  5173  000E92  0E00               	movlw	0
  5174  000E94  6E25               	movwf	SignFlash@i,c
  5175  000E96  504B               	movf	??_SignFlash& (0+255),w,c
  5176  000E98  D01A               	goto	L28
  5177  000E9A                     l2899:
  5178                           
  5179                           ;BootPIC18NonJ.c: 627: {
  5180                           ;BootPIC18NonJ.c: 628: ProgrammingBuffer[i] = *pROM++;
  5181  000E9A  C00C  FFF6         	movff	SignFlash@pROM,tblptrl
  5182  000E9E  C00D  FFF7         	movff	SignFlash@pROM+1,tblptrh
  5183  000EA2  C00E  FFF8         	movff	SignFlash@pROM+2,tblptru
  5184  000EA6  5025               	movf	SignFlash@i,w,c
  5185  000EA8  0D01               	mullw	1
  5186  000EAA  0101               	movlb	1	; () banked
  5187  000EAC  0E00               	movlw	low _ProgrammingBuffer
  5188  000EAE  24F3               	addwf	prodl,w,c
  5189  000EB0  6ED9               	movwf	fsr2l,c
  5190  000EB2  0101               	movlb	1	; () banked
  5191  000EB4  0E01               	movlw	high _ProgrammingBuffer
  5192  000EB6  20F4               	addwfc	prodh,w,c
  5193  000EB8  6EDA               	movwf	fsr2h,c
  5194  000EBA  0008               	tblrd		*
  5195  000EBC  CFF5 FFDF          	movff	tablat,indf2
  5196                           
  5197                           ; BSR set to: 1
  5198  000EC0  0E01               	movlw	1
  5199  000EC2  260C               	addwf	SignFlash@pROM,f,c
  5200  000EC4  0E00               	movlw	0
  5201  000EC6  220D               	addwfc	SignFlash@pROM+1,f,c
  5202  000EC8  0E00               	movlw	0
  5203  000ECA  220E               	addwfc	SignFlash@pROM+2,f,c
  5204                           
  5205                           ; BSR set to: 1
  5206  000ECC  2A25               	incf	SignFlash@i,f,c
  5207  000ECE                     L28:
  5208                           
  5209                           ; BSR set to: 1
  5210  000ECE  0E3F               	movlw	63
  5211  000ED0  6425               	cpfsgt	SignFlash@i,c
  5212  000ED2  D7E3               	goto	l2899
  5213                           
  5214                           ;BootPIC18NonJ.c: 629: }
  5215                           ;BootPIC18NonJ.c: 632: ProgrammingBuffer[(0x2006 & ~(uint32_t)(0x1000000 - 64))] = (unsi
      +                          gned char)0x600D;
  5216                           
  5217                           ; BSR set to: 1
  5218  000ED4  6E4B               	movwf	??_SignFlash& (0+255),c
  5219  000ED6  0E0D               	movlw	13
  5220  000ED8  0101               	movlb	1	; () banked
  5221  000EDA  0101               	movlb	1	; () banked
  5222  000EDC  6F06               	movwf	(_ProgrammingBuffer+6)& (0+255),b
  5223  000EDE  504B               	movf	??_SignFlash& (0+255),w,c
  5224                           
  5225                           ;BootPIC18NonJ.c: 633: ProgrammingBuffer[(0x2006 & ~(uint32_t)(0x1000000 - 64)) + 1] = (
      +                          unsigned char)(0x600D >> 8);
  5226  000EE0  6E4B               	movwf	??_SignFlash& (0+255),c
  5227  000EE2  0E60               	movlw	96
  5228  000EE4  0101               	movlb	1	; () banked
  5229  000EE6  0101               	movlb	1	; () banked
  5230  000EE8  6F07               	movwf	(_ProgrammingBuffer+7)& (0+255),b
  5231  000EEA  504B               	movf	??_SignFlash& (0+255),w,c
  5232                           
  5233                           ; BSR set to: 1
  5234                           ;BootPIC18NonJ.c: 637: TBLPTRU = (uint8_t)((0x2006 & (uint32_t)(0x1000000 - 64)) >> 16);
  5235  000EEC  0E00               	movlw	0
  5236  000EEE  6EF8               	movwf	tblptru,c	;volatile
  5237                           
  5238                           ; BSR set to: 1
  5239                           ;BootPIC18NonJ.c: 638: TBLPTRH = (uint8_t)((0x2006 & (uint32_t)(0x1000000 - 64)) >> 8);
  5240  000EF0  0E20               	movlw	32
  5241  000EF2  6EF7               	movwf	tblptrh,c	;volatile
  5242                           
  5243                           ; BSR set to: 1
  5244                           ;BootPIC18NonJ.c: 639: TBLPTRL = (uint8_t)(0x2006 & (uint32_t)(0x1000000 - 64));
  5245  000EF4  0E00               	movlw	0
  5246  000EF6  6EF6               	movwf	tblptrl,c	;volatile
  5247                           
  5248                           ; BSR set to: 1
  5249                           ;BootPIC18NonJ.c: 641: EECON1 = 0x94;
  5250  000EF8  0E94               	movlw	148
  5251  000EFA  6EA6               	movwf	4006,c	;volatile
  5252                           
  5253                           ; BSR set to: 1
  5254                           ;BootPIC18NonJ.c: 642: UnlockAndActivate(0xB5);
  5255  000EFC  0EB5               	movlw	181
  5256  000EFE  EC24  F00E         	call	_UnlockAndActivate
  5257                           
  5258                           ;BootPIC18NonJ.c: 650: pROM = (const uint8_t*)((0x2006 & (uint32_t)(0x1000000 - 64)) + 6
      +                          4 - 1);
  5259  000F02  0E00               	movlw	0
  5260  000F04  6E0E               	movwf	SignFlash@pROM+2,c
  5261  000F06  0E20               	movlw	32
  5262  000F08  6E0D               	movwf	SignFlash@pROM+1,c
  5263  000F0A  0E3F               	movlw	63
  5264  000F0C  6E0C               	movwf	SignFlash@pROM,c
  5265                           
  5266                           ;BootPIC18NonJ.c: 652: i = 64 - 1;
  5267  000F0E  6E4B               	movwf	??_SignFlash& (0+255),c
  5268  000F10  0E3F               	movlw	63
  5269  000F12  6E25               	movwf	SignFlash@i,c
  5270  000F14  504B               	movf	??_SignFlash& (0+255),w,c
  5271  000F16                     l2923:
  5272                           
  5273                           ;BootPIC18NonJ.c: 654: {
  5274                           ;BootPIC18NonJ.c: 656: TBLPTRU = (uint32_t)pROM >> 16;
  5275  000F16  500C               	movf	SignFlash@pROM,w,c
  5276  000F18  6E4B               	movwf	??_SignFlash& (0+255),c
  5277  000F1A  500D               	movf	SignFlash@pROM+1,w,c
  5278  000F1C  6E4C               	movwf	(??_SignFlash+1)& (0+255),c
  5279  000F1E  500E               	movf	SignFlash@pROM+2,w,c
  5280  000F20  6E4D               	movwf	(??_SignFlash+2)& (0+255),c
  5281  000F22  6A4E               	clrf	(??_SignFlash+3)& (0+255),c
  5282  000F24  0E11               	movlw	17
  5283  000F26  D005               	goto	u1880
  5284  000F28                     u1885:
  5285  000F28  90D8               	bcf	status,0,c
  5286  000F2A  324E               	rrcf	??_SignFlash+3,f,c
  5287  000F2C  324D               	rrcf	??_SignFlash+2,f,c
  5288  000F2E  324C               	rrcf	??_SignFlash+1,f,c
  5289  000F30  324B               	rrcf	??_SignFlash,f,c
  5290  000F32                     u1880:
  5291  000F32  2EE8               	decfsz	wreg,f,c
  5292  000F34  D7F9               	goto	u1885
  5293  000F36  504B               	movf	??_SignFlash,w,c
  5294  000F38  6EF8               	movwf	tblptru,c	;volatile
  5295                           
  5296                           ;BootPIC18NonJ.c: 657: TBLPTRH = (uint16_t)pROM >> 8;
  5297  000F3A  C00D  F04B         	movff	SignFlash@pROM+1,??_SignFlash
  5298  000F3E  C04B  F04C         	movff	??_SignFlash,??_SignFlash+1
  5299  000F42  6A4D               	clrf	(??_SignFlash+2)& (0+255),c
  5300  000F44  504C               	movf	??_SignFlash+1,w,c
  5301  000F46  6EF7               	movwf	tblptrh,c	;volatile
  5302                           
  5303                           ;BootPIC18NonJ.c: 658: TBLPTRL = (uint8_t)pROM;
  5304  000F48  C00C  FFF6         	movff	SignFlash@pROM,tblptrl	;volatile
  5305                           
  5306                           ;BootPIC18NonJ.c: 662: TABLAT = ProgrammingBuffer[i];
  5307  000F4C  5025               	movf	SignFlash@i,w,c
  5308  000F4E  0D01               	mullw	1
  5309  000F50  0101               	movlb	1	; () banked
  5310  000F52  0E00               	movlw	low _ProgrammingBuffer
  5311  000F54  24F3               	addwf	prodl,w,c
  5312  000F56  6ED9               	movwf	fsr2l,c
  5313  000F58  0101               	movlb	1	; () banked
  5314  000F5A  0E01               	movlw	high _ProgrammingBuffer
  5315  000F5C  20F4               	addwfc	prodh,w,c
  5316  000F5E  6EDA               	movwf	fsr2h,c
  5317  000F60  50DF               	movf	indf2,w,c
  5318  000F62  6EF5               	movwf	tablat,c	;volatile
  5319  000F64  000C               	tblwt		*	;# 
  5320                           
  5321                           ;BootPIC18NonJ.c: 673: if((i % 0x20) == 0)
  5322  000F66  C025  F04B         	movff	SignFlash@i,??_SignFlash
  5323  000F6A  0E1F               	movlw	31
  5324  000F6C  164B               	andwf	??_SignFlash,f,c
  5325  000F6E  A4D8               	btfss	status,2,c
  5326  000F70  D007               	goto	l2939
  5327                           
  5328                           ;BootPIC18NonJ.c: 674: {
  5329                           ;BootPIC18NonJ.c: 676: ClearWatchdog();
  5330  000F72  EC02  F000         	call	_ClearWatchdog	;wreg free
  5331                           
  5332                           ;BootPIC18NonJ.c: 677: EECON1 = 0xA4;
  5333  000F76  0EA4               	movlw	164
  5334  000F78  6EA6               	movwf	4006,c	;volatile
  5335                           
  5336                           ;BootPIC18NonJ.c: 678: UnlockAndActivate(0xB5);
  5337  000F7A  0EB5               	movlw	181
  5338  000F7C  EC24  F00E         	call	_UnlockAndActivate
  5339  000F80                     l2939:
  5340                           
  5341                           ;BootPIC18NonJ.c: 679: }
  5342                           ;BootPIC18NonJ.c: 681: pROM--;
  5343  000F80  0E01               	movlw	1
  5344  000F82  5E0C               	subwf	SignFlash@pROM,f,c
  5345  000F84  0E00               	movlw	0
  5346  000F86  5A0D               	subwfb	SignFlash@pROM+1,f,c
  5347  000F88  0E00               	movlw	0
  5348  000F8A  5A0E               	subwfb	SignFlash@pROM+2,f,c
  5349  000F8C  000A               	tblrd		*-	;# 
  5350                           
  5351                           ;BootPIC18NonJ.c: 691: if(i == 0) {
  5352  000F8E  6625               	tstfsz	SignFlash@i,c
  5353  000F90  D001               	goto	l2945
  5354  000F92  D002               	goto	l138
  5355  000F94                     l2945:
  5356                           
  5357                           ;BootPIC18NonJ.c: 693: }
  5358                           ;BootPIC18NonJ.c: 694: i--;
  5359  000F94  0625               	decf	SignFlash@i,f,c
  5360  000F96  D7BF               	goto	l2923
  5361  000F98                     l138:
  5362  000F98  0012               	return	
  5363  000F9A                     __end_of_SignFlash:
  5364                           	opt stack 0
  5365                           stkptr	equ	0xFFC
  5366                           tblptru	equ	0xFF8
  5367                           tblptrh	equ	0xFF7
  5368                           tblptrl	equ	0xFF6
  5369                           tablat	equ	0xFF5
  5370                           prodh	equ	0xFF4
  5371                           prodl	equ	0xFF3
  5372                           intcon	equ	0xFF2
  5373                           postinc0	equ	0xFEE
  5374                           wreg	equ	0xFE8
  5375                           indf1	equ	0xFE7
  5376                           fsr1h	equ	0xFE2
  5377                           fsr1l	equ	0xFE1
  5378                           indf2	equ	0xFDF
  5379                           postinc2	equ	0xFDE
  5380                           postdec2	equ	0xFDD
  5381                           plusw2	equ	0xFDB
  5382                           fsr2h	equ	0xFDA
  5383                           fsr2l	equ	0xFD9
  5384                           status	equ	0xFD8
  5385                           
  5386 ;; *************** function _UnlockAndActivate *****************
  5387 ;; Defined at:
  5388 ;;		line 892 in file "../src/BootPIC18NonJ.c"
  5389 ;; Parameters:    Size  Location     Type
  5390 ;;  UnlockKey       1    wreg     unsigned char 
  5391 ;; Auto vars:     Size  Location     Type
  5392 ;;  UnlockKey       1    0[COMRAM] unsigned char 
  5393 ;; Return value:  Size  Location     Type
  5394 ;;		None               void
  5395 ;; Registers used:
  5396 ;;		wreg, status,2, status,0, cstack
  5397 ;; Tracked objects:
  5398 ;;		On entry : 0/0
  5399 ;;		On exit  : 0/0
  5400 ;;		Unchanged: 0/0
  5401 ;; Data sizes:     COMRAM   BANK0   BANK1   BANK2   BANK3  BANK4h   BANK5   BANK6   BANK7
  5402 ;;      Params:         0       0       0       0       0       0       0       0       0
  5403 ;;      Locals:         1       0       0       0       0       0       0       0       0
  5404 ;;      Temps:          0       0       0       0       0       0       0       0       0
  5405 ;;      Totals:         1       0       0       0       0       0       0       0       0
  5406 ;;Total ram usage:        1 bytes
  5407 ;; Hardware stack levels used:    1
  5408 ;; Hardware stack levels required when called:    1
  5409 ;; This function calls:
  5410 ;;		_LowVoltageCheck
  5411 ;; This function is called by:
  5412 ;;		_ProcessIO
  5413 ;;		_SignFlash
  5414 ;;		_WriteFlashBlock
  5415 ;;		_WriteConfigBits
  5416 ;;		_WriteEEPROM
  5417 ;; This function uses a non-reentrant model
  5418 ;;
  5419                           
  5420                           	psect	text25
  5421  001C48                     __ptext25:
  5422                           	opt stack 0
  5423  001C48                     _UnlockAndActivate:
  5424                           	opt stack 26
  5425                           
  5426                           ;incstack = 0
  5427                           ;UnlockAndActivate@UnlockKey stored from wreg
  5428  001C48  CFE8 F04A          	movff	wreg,UnlockAndActivate@UnlockKey
  5429                           
  5430                           ;BootPIC18NonJ.c: 894: INTCONbits.GIE = 0;
  5431  001C4C  9EF2               	bcf	intcon,7,c	;volatile
  5432                           
  5433                           ;BootPIC18NonJ.c: 897: LowVoltageCheck();
  5434  001C4E  ECC7  F00E         	call	_LowVoltageCheck	;wreg free
  5435                           
  5436                           ;BootPIC18NonJ.c: 901: if(UnlockKey != 0xB5)
  5437  001C52  504A               	movf	UnlockAndActivate@UnlockKey,w,c
  5438  001C54  0AB5               	xorlw	181
  5439  001C56  B4D8               	btfsc	status,2,c
  5440  001C58  D005               	goto	l2631
  5441                           
  5442                           ;BootPIC18NonJ.c: 902: {
  5443                           ;BootPIC18NonJ.c: 910: OSCCON = 0x03;
  5444  001C5A  0E03               	movlw	3
  5445  001C5C  6ED3               	movwf	4051,c	;volatile
  5446  001C5E                     l181:
  5447  001C5E  0003               	sleep		;# 
  5448  001C60  D7FE               	goto	l181
  5449  001C62  00FF               	reset		;# 
  5450  001C64                     l2631:
  5451                           
  5452                           ;BootPIC18NonJ.c: 916: }
  5453                           ;BootPIC18NonJ.c: 919: EECON2 = 0x55;
  5454  001C64  0E55               	movlw	85
  5455  001C66  6EA7               	movwf	4007,c	;volatile
  5456                           
  5457                           ;BootPIC18NonJ.c: 920: EECON2 = 0xAA;
  5458  001C68  0EAA               	movlw	170
  5459  001C6A  6EA7               	movwf	4007,c	;volatile
  5460                           
  5461                           ;BootPIC18NonJ.c: 921: EECON1bits.WR = 1;
  5462  001C6C  82A6               	bsf	4006,1,c	;volatile
  5463  001C6E                     l184:
  5464  001C6E  B2A6               	btfsc	4006,1,c	;volatile
  5465  001C70  D7FE               	goto	l184
  5466                           
  5467                           ;BootPIC18NonJ.c: 934: EECON1bits.WREN = 0;
  5468  001C72  94A6               	bcf	4006,2,c	;volatile
  5469  001C74  0012               	return	
  5470  001C76                     __end_of_UnlockAndActivate:
  5471                           	opt stack 0
  5472                           stkptr	equ	0xFFC
  5473                           tblptru	equ	0xFF8
  5474                           tblptrh	equ	0xFF7
  5475                           tblptrl	equ	0xFF6
  5476                           tablat	equ	0xFF5
  5477                           prodh	equ	0xFF4
  5478                           prodl	equ	0xFF3
  5479                           intcon	equ	0xFF2
  5480                           postinc0	equ	0xFEE
  5481                           wreg	equ	0xFE8
  5482                           indf1	equ	0xFE7
  5483                           fsr1h	equ	0xFE2
  5484                           fsr1l	equ	0xFE1
  5485                           indf2	equ	0xFDF
  5486                           postinc2	equ	0xFDE
  5487                           postdec2	equ	0xFDD
  5488                           plusw2	equ	0xFDB
  5489                           fsr2h	equ	0xFDA
  5490                           fsr2l	equ	0xFD9
  5491                           status	equ	0xFD8
  5492                           
  5493 ;; *************** function _LowVoltageCheck *****************
  5494 ;; Defined at:
  5495 ;;		line 712 in file "../src/main.c"
  5496 ;; Parameters:    Size  Location     Type
  5497 ;;		None
  5498 ;; Auto vars:     Size  Location     Type
  5499 ;;		None
  5500 ;; Return value:  Size  Location     Type
  5501 ;;		None               void
  5502 ;; Registers used:
  5503 ;;		None
  5504 ;; Tracked objects:
  5505 ;;		On entry : 0/0
  5506 ;;		On exit  : 0/0
  5507 ;;		Unchanged: 0/0
  5508 ;; Data sizes:     COMRAM   BANK0   BANK1   BANK2   BANK3  BANK4h   BANK5   BANK6   BANK7
  5509 ;;      Params:         0       0       0       0       0       0       0       0       0
  5510 ;;      Locals:         0       0       0       0       0       0       0       0       0
  5511 ;;      Temps:          0       0       0       0       0       0       0       0       0
  5512 ;;      Totals:         0       0       0       0       0       0       0       0       0
  5513 ;;Total ram usage:        0 bytes
  5514 ;; Hardware stack levels used:    1
  5515 ;; This function calls:
  5516 ;;		Nothing
  5517 ;; This function is called by:
  5518 ;;		_UnlockAndActivate
  5519 ;;		_BootMain
  5520 ;; This function uses a non-reentrant model
  5521 ;;
  5522                           
  5523                           	psect	text26
  5524  001D8E                     __ptext26:
  5525                           	opt stack 0
  5526  001D8E                     _LowVoltageCheck:
  5527                           	opt stack 26
  5528                           
  5529                           ;incstack = 0
  5530  001D8E  0012               	return	
  5531  001D90                     __end_of_LowVoltageCheck:
  5532                           	opt stack 0
  5533                           stkptr	equ	0xFFC
  5534                           tblptru	equ	0xFF8
  5535                           tblptrh	equ	0xFF7
  5536                           tblptrl	equ	0xFF6
  5537                           tablat	equ	0xFF5
  5538                           prodh	equ	0xFF4
  5539                           prodl	equ	0xFF3
  5540                           intcon	equ	0xFF2
  5541                           postinc0	equ	0xFEE
  5542                           wreg	equ	0xFE8
  5543                           indf1	equ	0xFE7
  5544                           fsr1h	equ	0xFE2
  5545                           fsr1l	equ	0xFE1
  5546                           indf2	equ	0xFDF
  5547                           postinc2	equ	0xFDE
  5548                           postdec2	equ	0xFDD
  5549                           plusw2	equ	0xFDB
  5550                           fsr2h	equ	0xFDA
  5551                           fsr2l	equ	0xFD9
  5552                           status	equ	0xFD8
  5553                           
  5554 ;; *************** function _ResetDeviceCleanly *****************
  5555 ;; Defined at:
  5556 ;;		line 708 in file "../src/BootPIC18NonJ.c"
  5557 ;; Parameters:    Size  Location     Type
  5558 ;;		None
  5559 ;; Auto vars:     Size  Location     Type
  5560 ;;		None
  5561 ;; Return value:  Size  Location     Type
  5562 ;;		None               void
  5563 ;; Registers used:
  5564 ;;		wreg, status,2, status,0, cstack
  5565 ;; Tracked objects:
  5566 ;;		On entry : 0/0
  5567 ;;		On exit  : 0/0
  5568 ;;		Unchanged: 0/0
  5569 ;; Data sizes:     COMRAM   BANK0   BANK1   BANK2   BANK3  BANK4h   BANK5   BANK6   BANK7
  5570 ;;      Params:         0       0       0       0       0       0       0       0       0
  5571 ;;      Locals:         0       0       0       0       0       0       0       0       0
  5572 ;;      Temps:          0       0       0       0       0       0       0       0       0
  5573 ;;      Totals:         0       0       0       0       0       0       0       0       0
  5574 ;;Total ram usage:        0 bytes
  5575 ;; Hardware stack levels used:    1
  5576 ;; Hardware stack levels required when called:    3
  5577 ;; This function calls:
  5578 ;;		_USBDisableWithLongDelay
  5579 ;; This function is called by:
  5580 ;;		_ProcessIO
  5581 ;; This function uses a non-reentrant model
  5582 ;;
  5583                           
  5584                           	psect	text27
  5585  00000C                     __ptext27:
  5586                           	opt stack 0
  5587  00000C                     _ResetDeviceCleanly:
  5588                           	opt stack 25
  5589                           
  5590                           ;BootPIC18NonJ.c: 710: USBDisableWithLongDelay();
  5591                           
  5592                           ;incstack = 0
  5593  00000C  EC70  F00E         	call	_USBDisableWithLongDelay	;wreg free
  5594  000010  00FF               	reset		;# 
  5595                           
  5596                           ;BootPIC18NonJ.c: 712: __nop();
  5597  000012  F000               	nop	
  5598                           
  5599                           ;BootPIC18NonJ.c: 713: __nop();
  5600  000014  F000               	nop	
  5601  000016  0012               	return	
  5602  000018                     __end_of_ResetDeviceCleanly:
  5603                           	opt stack 0
  5604                           stkptr	equ	0xFFC
  5605                           tblptru	equ	0xFF8
  5606                           tblptrh	equ	0xFF7
  5607                           tblptrl	equ	0xFF6
  5608                           tablat	equ	0xFF5
  5609                           prodh	equ	0xFF4
  5610                           prodl	equ	0xFF3
  5611                           intcon	equ	0xFF2
  5612                           postinc0	equ	0xFEE
  5613                           wreg	equ	0xFE8
  5614                           indf1	equ	0xFE7
  5615                           fsr1h	equ	0xFE2
  5616                           fsr1l	equ	0xFE1
  5617                           indf2	equ	0xFDF
  5618                           postinc2	equ	0xFDE
  5619                           postdec2	equ	0xFDD
  5620                           plusw2	equ	0xFDB
  5621                           fsr2h	equ	0xFDA
  5622                           fsr2l	equ	0xFD9
  5623                           status	equ	0xFD8
  5624                           
  5625 ;; *************** function _HIDTxReport *****************
  5626 ;; Defined at:
  5627 ;;		line 229 in file "../src/usb_device_hid.c"
  5628 ;; Parameters:    Size  Location     Type
  5629 ;;  buffer          2    0[COMRAM] PTR unsigned char 
  5630 ;;		 -> PacketToPC(65), 
  5631 ;;  len             1    2[COMRAM] unsigned char 
  5632 ;; Auto vars:     Size  Location     Type
  5633 ;;  i               1    4[COMRAM] unsigned char 
  5634 ;; Return value:  Size  Location     Type
  5635 ;;		None               void
  5636 ;; Registers used:
  5637 ;;		wreg, fsr1l, fsr1h, fsr2l, fsr2h, status,2, status,0, prodl, prodh
  5638 ;; Tracked objects:
  5639 ;;		On entry : 0/0
  5640 ;;		On exit  : 0/0
  5641 ;;		Unchanged: 0/0
  5642 ;; Data sizes:     COMRAM   BANK0   BANK1   BANK2   BANK3  BANK4h   BANK5   BANK6   BANK7
  5643 ;;      Params:         3       0       0       0       0       0       0       0       0
  5644 ;;      Locals:         1       0       0       0       0       0       0       0       0
  5645 ;;      Temps:          1       0       0       0       0       0       0       0       0
  5646 ;;      Totals:         5       0       0       0       0       0       0       0       0
  5647 ;;Total ram usage:        5 bytes
  5648 ;; Hardware stack levels used:    1
  5649 ;; This function calls:
  5650 ;;		Nothing
  5651 ;; This function is called by:
  5652 ;;		_ProcessIO
  5653 ;; This function uses a non-reentrant model
  5654 ;;
  5655                           
  5656                           	psect	text28
  5657  0017CE                     __ptext28:
  5658                           	opt stack 0
  5659  0017CE                     _HIDTxReport:
  5660                           	opt stack 28
  5661                           
  5662                           ;usb_device_hid.c: 231: uint8_t i;
  5663                           ;usb_device_hid.c: 237: if(len > 64)
  5664                           
  5665                           ;incstack = 0
  5666  0017CE  0E40               	movlw	64
  5667  0017D0  644C               	cpfsgt	HIDTxReport@len,c
  5668  0017D2  D004               	goto	l697
  5669                           
  5670                           ;usb_device_hid.c: 238: len = 64;
  5671  0017D4  6E4D               	movwf	??_HIDTxReport& (0+255),c
  5672  0017D6  0E40               	movlw	64
  5673  0017D8  6E4C               	movwf	HIDTxReport@len,c
  5674  0017DA  504D               	movf	??_HIDTxReport& (0+255),w,c
  5675  0017DC                     l697:
  5676                           
  5677                           ;usb_device_hid.c: 243: for (i = 0; i < len; i++)
  5678  0017DC  6E4D               	movwf	??_HIDTxReport& (0+255),c
  5679  0017DE  0E00               	movlw	0
  5680  0017E0  6E4E               	movwf	HIDTxReport@i,c
  5681  0017E2  504D               	movf	??_HIDTxReport& (0+255),w,c
  5682  0017E4  D015               	goto	l2453
  5683  0017E6                     l2449:
  5684                           
  5685                           ;usb_device_hid.c: 244: hid_report_in[i] = buffer[i];
  5686  0017E6  504E               	movf	HIDTxReport@i,w,c
  5687  0017E8  0D01               	mullw	1
  5688  0017EA  50F3               	movf	prodl,w,c
  5689  0017EC  244A               	addwf	HIDTxReport@buffer,w,c
  5690  0017EE  6ED9               	movwf	fsr2l,c
  5691  0017F0  50F4               	movf	prodh,w,c
  5692  0017F2  204B               	addwfc	HIDTxReport@buffer+1,w,c
  5693  0017F4  6EDA               	movwf	fsr2h,c
  5694  0017F6  504E               	movf	HIDTxReport@i,w,c
  5695  0017F8  0D01               	mullw	1
  5696  0017FA  0104               	movlb	4	; () banked
  5697  0017FC  0E6C               	movlw	108	;volatile
  5698  0017FE  24F3               	addwf	prodl,w,c
  5699  001800  6EE1               	movwf	fsr1l,c
  5700  001802  0104               	movlb	4	; () banked
  5701  001804  0E04               	movlw	4	;volatile
  5702  001806  20F4               	addwfc	prodh,w,c
  5703  001808  6EE2               	movwf	fsr1h,c
  5704  00180A  CFDF FFE7          	movff	indf2,indf1
  5705                           
  5706                           ; BSR set to: 4
  5707  00180E  2A4E               	incf	HIDTxReport@i,f,c
  5708  001810                     l2453:
  5709  001810  504C               	movf	HIDTxReport@len,w,c
  5710  001812  5C4E               	subwf	HIDTxReport@i,w,c
  5711  001814  A0D8               	btfss	status,0,c
  5712  001816  D7E7               	goto	l2449
  5713                           
  5714                           ;usb_device_hid.c: 246: ep1Bi.Cnt = len;
  5715  001818  C04C  F411         	movff	HIDTxReport@len,1041	;volatile
  5716                           
  5717                           ;usb_device_hid.c: 247: { ep1Bi.Stat._byte &= 0x40; ep1Bi.Stat.DTS = !ep1Bi.Stat.DTS; ep
      +                          1Bi.Stat._byte |= 0x08; ep1Bi.Stat._byte |= 0x80; };
  5718  00181C  0E40               	movlw	64
  5719  00181E  0104               	movlb	4	; () banked
  5720  001820  0104               	movlb	4	; () banked
  5721  001822  1710               	andwf	16,f,b	;volatile
  5722  001824  0104               	movlb	4	; () banked
  5723  001826  BD10               	btfsc	16,6,b	;volatile
  5724  001828  D002               	goto	u1290
  5725  00182A  0E01               	movlw	1
  5726  00182C  D001               	goto	u1296
  5727  00182E                     u1290:
  5728  00182E  0E00               	movlw	0
  5729  001830                     u1296:
  5730  001830  6E4D               	movwf	??_HIDTxReport& (0+255),c
  5731  001832  3A4D               	swapf	??_HIDTxReport,f,c
  5732  001834  464D               	rlncf	??_HIDTxReport,f,c
  5733  001836  464D               	rlncf	??_HIDTxReport,f,c
  5734  001838  0104               	movlb	4	; () banked
  5735  00183A  0104               	movlb	4	; () banked
  5736  00183C  5110               	movf	16,w,b	;volatile
  5737  00183E  184D               	xorwf	??_HIDTxReport,w,c
  5738  001840  0BBF               	andlw	-65
  5739  001842  184D               	xorwf	??_HIDTxReport,w,c
  5740  001844  0104               	movlb	4	; () banked
  5741  001846  0104               	movlb	4	; () banked
  5742  001848  6F10               	movwf	16,b	;volatile
  5743                           
  5744                           ; BSR set to: 4
  5745  00184A  0104               	movlb	4	; () banked
  5746  00184C  0104               	movlb	4	; () banked
  5747  00184E  8710               	bsf	16,3,b	;volatile
  5748                           
  5749                           ; BSR set to: 4
  5750  001850  0104               	movlb	4	; () banked
  5751  001852  0104               	movlb	4	; () banked
  5752  001854  8F10               	bsf	16,7,b	;volatile
  5753                           
  5754                           ; BSR set to: 4
  5755  001856  0012               	return	
  5756  001858                     __end_of_HIDTxReport:
  5757                           	opt stack 0
  5758                           stkptr	equ	0xFFC
  5759                           tblptru	equ	0xFF8
  5760                           tblptrh	equ	0xFF7
  5761                           tblptrl	equ	0xFF6
  5762                           tablat	equ	0xFF5
  5763                           prodh	equ	0xFF4
  5764                           prodl	equ	0xFF3
  5765                           intcon	equ	0xFF2
  5766                           postinc0	equ	0xFEE
  5767                           wreg	equ	0xFE8
  5768                           indf1	equ	0xFE7
  5769                           fsr1h	equ	0xFE2
  5770                           fsr1l	equ	0xFE1
  5771                           indf2	equ	0xFDF
  5772                           postinc2	equ	0xFDE
  5773                           postdec2	equ	0xFDD
  5774                           plusw2	equ	0xFDB
  5775                           fsr2h	equ	0xFDA
  5776                           fsr2l	equ	0xFD9
  5777                           status	equ	0xFD8
  5778                           
  5779 ;; *************** function _HIDRxReport *****************
  5780 ;; Defined at:
  5781 ;;		line 284 in file "../src/usb_device_hid.c"
  5782 ;; Parameters:    Size  Location     Type
  5783 ;;  buffer          2    0[COMRAM] PTR unsigned char 
  5784 ;;		 -> PacketFromPC(65), 
  5785 ;;  len             1    2[COMRAM] unsigned char 
  5786 ;; Auto vars:     Size  Location     Type
  5787 ;;		None
  5788 ;; Return value:  Size  Location     Type
  5789 ;;                  1    wreg      unsigned char 
  5790 ;; Registers used:
  5791 ;;		wreg, fsr1l, fsr1h, fsr2l, fsr2h, status,2, status,0, prodl, prodh
  5792 ;; Tracked objects:
  5793 ;;		On entry : 0/0
  5794 ;;		On exit  : 0/0
  5795 ;;		Unchanged: 0/0
  5796 ;; Data sizes:     COMRAM   BANK0   BANK1   BANK2   BANK3  BANK4h   BANK5   BANK6   BANK7
  5797 ;;      Params:         3       0       0       0       0       0       0       0       0
  5798 ;;      Locals:         0       0       0       0       0       0       0       0       0
  5799 ;;      Temps:          1       0       0       0       0       0       0       0       0
  5800 ;;      Totals:         4       0       0       0       0       0       0       0       0
  5801 ;;Total ram usage:        4 bytes
  5802 ;; Hardware stack levels used:    1
  5803 ;; This function calls:
  5804 ;;		Nothing
  5805 ;; This function is called by:
  5806 ;;		_ProcessIO
  5807 ;; This function uses a non-reentrant model
  5808 ;;
  5809                           
  5810                           	psect	text29
  5811  001732                     __ptext29:
  5812                           	opt stack 0
  5813  001732                     _HIDRxReport:
  5814                           	opt stack 28
  5815                           
  5816                           ;usb_device_hid.c: 286: hid_rpt_rx_len = 0;
  5817                           
  5818                           ; BSR set to: 4
  5819                           ;incstack = 0
  5820  001732  6E4D               	movwf	??_HIDRxReport& (0+255),c
  5821  001734  0E00               	movlw	0
  5822  001736  6E38               	movwf	_hid_rpt_rx_len,c
  5823  001738  504D               	movf	??_HIDRxReport& (0+255),w,c
  5824                           
  5825                           ;usb_device_hid.c: 288: if(!ep1Bo.Stat.UOWN)
  5826  00173A  0104               	movlb	4	; () banked
  5827  00173C  BF0C               	btfsc	12,7,b	;volatile
  5828  00173E  D046               	goto	l709
  5829                           
  5830                           ; BSR set to: 4
  5831                           ;usb_device_hid.c: 289: {
  5832                           ;usb_device_hid.c: 294: if(len > ep1Bo.Cnt)
  5833  001740  504C               	movf	HIDRxReport@len,w,c
  5834  001742  0104               	movlb	4	; () banked
  5835  001744  0104               	movlb	4	; () banked
  5836  001746  5D0D               	subwf	13,w,b	;volatile
  5837  001748  A0D8               	btfss	status,0,c
  5838                           
  5839                           ; BSR set to: 4
  5840                           ;usb_device_hid.c: 295: len = ep1Bo.Cnt;
  5841  00174A  C40D F04C          	movff	1037,HIDRxReport@len	;volatile
  5842                           
  5843                           ; BSR set to: 4
  5844                           ;usb_device_hid.c: 300: for(hid_rpt_rx_len = 0; hid_rpt_rx_len < len; hid_rpt_rx_len++)
  5845                           
  5846                           ; BSR set to: 4
  5847  00174E  6E4D               	movwf	??_HIDRxReport& (0+255),c
  5848  001750  0E00               	movlw	0
  5849  001752  6E38               	movwf	_hid_rpt_rx_len,c
  5850  001754  504D               	movf	??_HIDRxReport& (0+255),w,c
  5851  001756  D015               	goto	l2431
  5852  001758                     l2427:
  5853                           
  5854                           ; BSR set to: 4
  5855                           ;usb_device_hid.c: 301: buffer[hid_rpt_rx_len] = hid_report_out[hid_rpt_rx_len];
  5856  001758  5038               	movf	_hid_rpt_rx_len,w,c
  5857  00175A  0D01               	mullw	1
  5858  00175C  0104               	movlb	4	; () banked
  5859  00175E  0E2C               	movlw	44	;volatile
  5860  001760  24F3               	addwf	prodl,w,c
  5861  001762  6ED9               	movwf	fsr2l,c
  5862  001764  0104               	movlb	4	; () banked
  5863  001766  0E04               	movlw	4	;volatile
  5864  001768  20F4               	addwfc	prodh,w,c
  5865  00176A  6EDA               	movwf	fsr2h,c
  5866  00176C  5038               	movf	_hid_rpt_rx_len,w,c
  5867  00176E  0D01               	mullw	1
  5868  001770  50F3               	movf	prodl,w,c
  5869  001772  244A               	addwf	HIDRxReport@buffer,w,c
  5870  001774  6EE1               	movwf	fsr1l,c
  5871  001776  50F4               	movf	prodh,w,c
  5872  001778  204B               	addwfc	HIDRxReport@buffer+1,w,c
  5873  00177A  6EE2               	movwf	fsr1h,c
  5874  00177C  CFDF FFE7          	movff	indf2,indf1
  5875                           
  5876                           ; BSR set to: 4
  5877  001780  2A38               	incf	_hid_rpt_rx_len,f,c
  5878  001782                     l2431:
  5879                           
  5880                           ; BSR set to: 4
  5881  001782  504C               	movf	HIDRxReport@len,w,c
  5882  001784  5C38               	subwf	_hid_rpt_rx_len,w,c
  5883  001786  A0D8               	btfss	status,0,c
  5884  001788  D7E7               	goto	l2427
  5885                           
  5886                           ; BSR set to: 4
  5887                           ;usb_device_hid.c: 306: ep1Bo.Cnt = sizeof(hid_report_out);
  5888                           
  5889                           ; BSR set to: 4
  5890  00178A  0E40               	movlw	64
  5891  00178C  0104               	movlb	4	; () banked
  5892  00178E  0104               	movlb	4	; () banked
  5893  001790  6F0D               	movwf	13,b	;volatile
  5894                           
  5895                           ; BSR set to: 4
  5896                           ;usb_device_hid.c: 307: { ep1Bo.Stat._byte &= 0x40; ep1Bo.Stat.DTS = !ep1Bo.Stat.DTS; ep
      +                          1Bo.Stat._byte |= 0x08; ep1Bo.Stat._byte |= 0x80; };
  5897  001792  0E40               	movlw	64
  5898  001794  0104               	movlb	4	; () banked
  5899  001796  0104               	movlb	4	; () banked
  5900  001798  170C               	andwf	12,f,b	;volatile
  5901                           
  5902                           ; BSR set to: 4
  5903  00179A  0104               	movlb	4	; () banked
  5904  00179C  BD0C               	btfsc	12,6,b	;volatile
  5905  00179E  D002               	goto	u1260
  5906  0017A0  0E01               	movlw	1
  5907  0017A2  D001               	goto	u1266
  5908  0017A4                     u1260:
  5909  0017A4  0E00               	movlw	0
  5910  0017A6                     u1266:
  5911  0017A6  6E4D               	movwf	??_HIDRxReport& (0+255),c
  5912  0017A8  3A4D               	swapf	??_HIDRxReport,f,c
  5913  0017AA  464D               	rlncf	??_HIDRxReport,f,c
  5914  0017AC  464D               	rlncf	??_HIDRxReport,f,c
  5915  0017AE  0104               	movlb	4	; () banked
  5916  0017B0  0104               	movlb	4	; () banked
  5917  0017B2  510C               	movf	12,w,b	;volatile
  5918  0017B4  184D               	xorwf	??_HIDRxReport,w,c
  5919  0017B6  0BBF               	andlw	-65
  5920  0017B8  184D               	xorwf	??_HIDRxReport,w,c
  5921  0017BA  0104               	movlb	4	; () banked
  5922  0017BC  0104               	movlb	4	; () banked
  5923  0017BE  6F0C               	movwf	12,b	;volatile
  5924                           
  5925                           ; BSR set to: 4
  5926  0017C0  0104               	movlb	4	; () banked
  5927  0017C2  0104               	movlb	4	; () banked
  5928  0017C4  870C               	bsf	12,3,b	;volatile
  5929                           
  5930                           ; BSR set to: 4
  5931  0017C6  0104               	movlb	4	; () banked
  5932  0017C8  0104               	movlb	4	; () banked
  5933  0017CA  8F0C               	bsf	12,7,b	;volatile
  5934  0017CC                     l709:
  5935                           
  5936                           ; BSR set to: 4
  5937  0017CC  0012               	return	
  5938  0017CE                     __end_of_HIDRxReport:
  5939                           	opt stack 0
  5940                           stkptr	equ	0xFFC
  5941                           tblptru	equ	0xFF8
  5942                           tblptrh	equ	0xFF7
  5943                           tblptrl	equ	0xFF6
  5944                           tablat	equ	0xFF5
  5945                           prodh	equ	0xFF4
  5946                           prodl	equ	0xFF3
  5947                           intcon	equ	0xFF2
  5948                           postinc0	equ	0xFEE
  5949                           wreg	equ	0xFE8
  5950                           indf1	equ	0xFE7
  5951                           fsr1h	equ	0xFE2
  5952                           fsr1l	equ	0xFE1
  5953                           indf2	equ	0xFDF
  5954                           postinc2	equ	0xFDE
  5955                           postdec2	equ	0xFDD
  5956                           plusw2	equ	0xFDB
  5957                           fsr2h	equ	0xFDA
  5958                           fsr2l	equ	0xFD9
  5959                           status	equ	0xFD8
  5960                           
  5961 ;; *************** function _InitializeSystem *****************
  5962 ;; Defined at:
  5963 ;;		line 595 in file "../src/main.c"
  5964 ;; Parameters:    Size  Location     Type
  5965 ;;		None
  5966 ;; Auto vars:     Size  Location     Type
  5967 ;;		None
  5968 ;; Return value:  Size  Location     Type
  5969 ;;		None               void
  5970 ;; Registers used:
  5971 ;;		wreg, fsr2l, fsr2h, status,2, status,0, cstack
  5972 ;; Tracked objects:
  5973 ;;		On entry : 0/0
  5974 ;;		On exit  : 0/0
  5975 ;;		Unchanged: 0/0
  5976 ;; Data sizes:     COMRAM   BANK0   BANK1   BANK2   BANK3  BANK4h   BANK5   BANK6   BANK7
  5977 ;;      Params:         0       0       0       0       0       0       0       0       0
  5978 ;;      Locals:         0       0       0       0       0       0       0       0       0
  5979 ;;      Temps:          0       0       0       0       0       0       0       0       0
  5980 ;;      Totals:         0       0       0       0       0       0       0       0       0
  5981 ;;Total ram usage:        0 bytes
  5982 ;; Hardware stack levels used:    1
  5983 ;; Hardware stack levels required when called:    6
  5984 ;; This function calls:
  5985 ;;		_USBDeviceInit
  5986 ;;		_UserInit
  5987 ;; This function is called by:
  5988 ;;		_BootMain
  5989 ;; This function uses a non-reentrant model
  5990 ;;
  5991                           
  5992                           	psect	text30
  5993  001D68                     __ptext30:
  5994                           	opt stack 0
  5995  001D68                     _InitializeSystem:
  5996                           	opt stack 23
  5997                           
  5998                           ;main.c: 648: UserInit();
  5999                           
  6000                           ; BSR set to: 4
  6001                           ;incstack = 0
  6002  001D68  EC51  F00E         	call	_UserInit	;wreg free
  6003                           
  6004                           ;main.c: 650: LATDbits.LATD0 = 0;
  6005  001D6C  908C               	bcf	3980,0,c	;volatile
  6006                           
  6007                           ;main.c: 651: TRISDbits.TRISD0 = 0;
  6008  001D6E  9095               	bcf	3989,0,c	;volatile
  6009                           
  6010                           ;main.c: 655: USBDeviceInit();
  6011  001D70  EC89  F00E         	call	_USBDeviceInit	;wreg free
  6012  001D74  0012               	return	
  6013  001D76                     __end_of_InitializeSystem:
  6014                           	opt stack 0
  6015                           stkptr	equ	0xFFC
  6016                           tblptru	equ	0xFF8
  6017                           tblptrh	equ	0xFF7
  6018                           tblptrl	equ	0xFF6
  6019                           tablat	equ	0xFF5
  6020                           prodh	equ	0xFF4
  6021                           prodl	equ	0xFF3
  6022                           intcon	equ	0xFF2
  6023                           postinc0	equ	0xFEE
  6024                           wreg	equ	0xFE8
  6025                           indf1	equ	0xFE7
  6026                           fsr1h	equ	0xFE2
  6027                           fsr1l	equ	0xFE1
  6028                           indf2	equ	0xFDF
  6029                           postinc2	equ	0xFDE
  6030                           postdec2	equ	0xFDD
  6031                           plusw2	equ	0xFDB
  6032                           fsr2h	equ	0xFDA
  6033                           fsr2l	equ	0xFD9
  6034                           status	equ	0xFD8
  6035                           
  6036 ;; *************** function _USBDeviceInit *****************
  6037 ;; Defined at:
  6038 ;;		line 318 in file "../src/usb_device.c"
  6039 ;; Parameters:    Size  Location     Type
  6040 ;;		None
  6041 ;; Auto vars:     Size  Location     Type
  6042 ;;		None
  6043 ;; Return value:  Size  Location     Type
  6044 ;;		None               void
  6045 ;; Registers used:
  6046 ;;		wreg, fsr2l, fsr2h, status,2, status,0, cstack
  6047 ;; Tracked objects:
  6048 ;;		On entry : 0/0
  6049 ;;		On exit  : 0/0
  6050 ;;		Unchanged: 0/0
  6051 ;; Data sizes:     COMRAM   BANK0   BANK1   BANK2   BANK3  BANK4h   BANK5   BANK6   BANK7
  6052 ;;      Params:         0       0       0       0       0       0       0       0       0
  6053 ;;      Locals:         0       0       0       0       0       0       0       0       0
  6054 ;;      Temps:          1       0       0       0       0       0       0       0       0
  6055 ;;      Totals:         1       0       0       0       0       0       0       0       0
  6056 ;;Total ram usage:        1 bytes
  6057 ;; Hardware stack levels used:    1
  6058 ;; Hardware stack levels required when called:    5
  6059 ;; This function calls:
  6060 ;;		_USBCheckBusStatus
  6061 ;;		_USBDisableWithLongDelay
  6062 ;; This function is called by:
  6063 ;;		_InitializeSystem
  6064 ;; This function uses a non-reentrant model
  6065 ;;
  6066                           
  6067                           	psect	text31
  6068  001D12                     __ptext31:
  6069                           	opt stack 0
  6070  001D12                     _USBDeviceInit:
  6071                           	opt stack 23
  6072                           
  6073                           ;usb_device.c: 324: if(UCONbits.USBEN == 1)
  6074                           
  6075                           ;incstack = 0
  6076  001D12  B66D               	btfsc	3949,3,c	;volatile
  6077                           
  6078                           ;usb_device.c: 325: {
  6079                           ;usb_device.c: 329: USBDisableWithLongDelay();
  6080  001D14  EC70  F00E         	call	_USBDisableWithLongDelay	;wreg free
  6081                           
  6082                           ;usb_device.c: 330: }
  6083                           ;usb_device.c: 331: DeviceIsSoftDetached = 0;
  6084  001D18  6E4E               	movwf	??_USBDeviceInit& (0+255),c
  6085  001D1A  0E00               	movlw	0
  6086  001D1C  6E32               	movwf	_DeviceIsSoftDetached,c
  6087  001D1E  504E               	movf	??_USBDeviceInit& (0+255),w,c
  6088                           
  6089                           ;usb_device.c: 339: USBCheckBusStatus();
  6090  001D20  ECBB  F00E         	call	_USBCheckBusStatus	;wreg free
  6091  001D24  0012               	return	
  6092  001D26                     __end_of_USBDeviceInit:
  6093                           	opt stack 0
  6094                           stkptr	equ	0xFFC
  6095                           tblptru	equ	0xFF8
  6096                           tblptrh	equ	0xFF7
  6097                           tblptrl	equ	0xFF6
  6098                           tablat	equ	0xFF5
  6099                           prodh	equ	0xFF4
  6100                           prodl	equ	0xFF3
  6101                           intcon	equ	0xFF2
  6102                           postinc0	equ	0xFEE
  6103                           wreg	equ	0xFE8
  6104                           indf1	equ	0xFE7
  6105                           fsr1h	equ	0xFE2
  6106                           fsr1l	equ	0xFE1
  6107                           indf2	equ	0xFDF
  6108                           postinc2	equ	0xFDE
  6109                           postdec2	equ	0xFDD
  6110                           plusw2	equ	0xFDB
  6111                           fsr2h	equ	0xFDA
  6112                           fsr2l	equ	0xFD9
  6113                           status	equ	0xFD8
  6114                           
  6115 ;; *************** function _USBCheckBusStatus *****************
  6116 ;; Defined at:
  6117 ;;		line 398 in file "../src/usb_device.c"
  6118 ;; Parameters:    Size  Location     Type
  6119 ;;		None
  6120 ;; Auto vars:     Size  Location     Type
  6121 ;;		None
  6122 ;; Return value:  Size  Location     Type
  6123 ;;		None               void
  6124 ;; Registers used:
  6125 ;;		wreg, fsr2l, fsr2h, status,2, status,0, cstack
  6126 ;; Tracked objects:
  6127 ;;		On entry : 0/0
  6128 ;;		On exit  : 0/0
  6129 ;;		Unchanged: 0/0
  6130 ;; Data sizes:     COMRAM   BANK0   BANK1   BANK2   BANK3  BANK4h   BANK5   BANK6   BANK7
  6131 ;;      Params:         0       0       0       0       0       0       0       0       0
  6132 ;;      Locals:         0       0       0       0       0       0       0       0       0
  6133 ;;      Temps:          0       0       0       0       0       0       0       0       0
  6134 ;;      Totals:         0       0       0       0       0       0       0       0       0
  6135 ;;Total ram usage:        0 bytes
  6136 ;; Hardware stack levels used:    1
  6137 ;; Hardware stack levels required when called:    4
  6138 ;; This function calls:
  6139 ;;		_USBSoftAttach
  6140 ;; This function is called by:
  6141 ;;		_USBDeviceInit
  6142 ;;		_USBDeviceTasks
  6143 ;; This function uses a non-reentrant model
  6144 ;;
  6145                           
  6146                           	psect	text32
  6147  001D76                     __ptext32:
  6148                           	opt stack 0
  6149  001D76                     _USBCheckBusStatus:
  6150                           	opt stack 24
  6151                           
  6152                           ;usb_device.c: 403: if(DeviceIsSoftDetached == 1)
  6153                           
  6154                           ;incstack = 0
  6155  001D76  0432               	decf	_DeviceIsSoftDetached,w,c
  6156  001D78  A4D8               	btfss	status,2,c
  6157                           
  6158                           ;usb_device.c: 406: }
  6159                           ;usb_device.c: 432: if(UCONbits.USBEN == 0)
  6160                           
  6161                           ;usb_device.c: 404: {
  6162                           ;usb_device.c: 405: return;
  6163  001D7A  B66D               	btfsc	3949,3,c	;volatile
  6164  001D7C  D002               	goto	l455
  6165                           
  6166                           ;usb_device.c: 433: USBSoftAttach();
  6167  001D7E  EC3B  F00E         	call	_USBSoftAttach	;wreg free
  6168  001D82                     l455:
  6169  001D82  0012               	return	
  6170  001D84                     __end_of_USBCheckBusStatus:
  6171                           	opt stack 0
  6172                           stkptr	equ	0xFFC
  6173                           tblptru	equ	0xFF8
  6174                           tblptrh	equ	0xFF7
  6175                           tblptrl	equ	0xFF6
  6176                           tablat	equ	0xFF5
  6177                           prodh	equ	0xFF4
  6178                           prodl	equ	0xFF3
  6179                           intcon	equ	0xFF2
  6180                           postinc0	equ	0xFEE
  6181                           wreg	equ	0xFE8
  6182                           indf1	equ	0xFE7
  6183                           fsr1h	equ	0xFE2
  6184                           fsr1l	equ	0xFE1
  6185                           indf2	equ	0xFDF
  6186                           postinc2	equ	0xFDE
  6187                           postdec2	equ	0xFDD
  6188                           plusw2	equ	0xFDB
  6189                           fsr2h	equ	0xFDA
  6190                           fsr2l	equ	0xFD9
  6191                           status	equ	0xFD8
  6192                           
  6193 ;; *************** function _USBSoftAttach *****************
  6194 ;; Defined at:
  6195 ;;		line 346 in file "../src/usb_device.c"
  6196 ;; Parameters:    Size  Location     Type
  6197 ;;		None
  6198 ;; Auto vars:     Size  Location     Type
  6199 ;;		None
  6200 ;; Return value:  Size  Location     Type
  6201 ;;		None               void
  6202 ;; Registers used:
  6203 ;;		wreg, fsr2l, fsr2h, status,2, status,0, cstack
  6204 ;; Tracked objects:
  6205 ;;		On entry : 0/0
  6206 ;;		On exit  : 0/0
  6207 ;;		Unchanged: 0/0
  6208 ;; Data sizes:     COMRAM   BANK0   BANK1   BANK2   BANK3  BANK4h   BANK5   BANK6   BANK7
  6209 ;;      Params:         0       0       0       0       0       0       0       0       0
  6210 ;;      Locals:         0       0       0       0       0       0       0       0       0
  6211 ;;      Temps:          1       0       0       0       0       0       0       0       0
  6212 ;;      Totals:         1       0       0       0       0       0       0       0       0
  6213 ;;Total ram usage:        1 bytes
  6214 ;; Hardware stack levels used:    1
  6215 ;; Hardware stack levels required when called:    3
  6216 ;; This function calls:
  6217 ;;		_USBDisableWithLongDelay
  6218 ;;		_USBProtocolResetHandler
  6219 ;; This function is called by:
  6220 ;;		_USBCheckBusStatus
  6221 ;; This function uses a non-reentrant model
  6222 ;;
  6223                           
  6224                           	psect	text33
  6225  001C76                     __ptext33:
  6226                           	opt stack 0
  6227  001C76                     _USBSoftAttach:
  6228                           	opt stack 24
  6229                           
  6230                           ;usb_device.c: 353: if(DeviceIsSoftDetached == 1)
  6231                           
  6232                           ;incstack = 0
  6233  001C76  0432               	decf	_DeviceIsSoftDetached,w,c
  6234  001C78  B4D8               	btfsc	status,2,c
  6235                           
  6236                           ;usb_device.c: 354: {
  6237                           ;usb_device.c: 355: USBDisableWithLongDelay();
  6238  001C7A  EC70  F00E         	call	_USBDisableWithLongDelay	;wreg free
  6239                           
  6240                           ;usb_device.c: 356: }
  6241                           ;usb_device.c: 358: UCON = 0;
  6242  001C7E  0E00               	movlw	0
  6243  001C80  6E6D               	movwf	3949,c	;volatile
  6244                           
  6245                           ;usb_device.c: 359: UCFG = 0x10|0x00|0x04|0x01;
  6246  001C82  0E15               	movlw	21
  6247  001C84  6E6F               	movwf	3951,c	;volatile
  6248                           
  6249                           ;usb_device.c: 360: UIE = 0;
  6250  001C86  0E00               	movlw	0
  6251  001C88  6E69               	movwf	3945,c	;volatile
  6252                           
  6253                           ;usb_device.c: 361: UCONbits.USBEN = 1;
  6254  001C8A  866D               	bsf	3949,3,c	;volatile
  6255                           
  6256                           ;usb_device.c: 363: USBProtocolResetHandler();
  6257  001C8C  EC6A  F00C         	call	_USBProtocolResetHandler	;wreg free
  6258                           
  6259                           ;usb_device.c: 364: usb_device_state = 1;
  6260  001C90  6E4D               	movwf	??_USBSoftAttach& (0+255),c
  6261  001C92  0E01               	movlw	1
  6262  001C94  6E3A               	movwf	_usb_device_state,c
  6263  001C96  504D               	movf	??_USBSoftAttach& (0+255),w,c
  6264                           
  6265                           ;usb_device.c: 365: DeviceIsSoftDetached = 0;
  6266  001C98  6E4D               	movwf	??_USBSoftAttach& (0+255),c
  6267  001C9A  0E00               	movlw	0
  6268  001C9C  6E32               	movwf	_DeviceIsSoftDetached,c
  6269  001C9E  504D               	movf	??_USBSoftAttach& (0+255),w,c
  6270  001CA0  0012               	return	
  6271  001CA2                     __end_of_USBSoftAttach:
  6272                           	opt stack 0
  6273                           stkptr	equ	0xFFC
  6274                           tblptru	equ	0xFF8
  6275                           tblptrh	equ	0xFF7
  6276                           tblptrl	equ	0xFF6
  6277                           tablat	equ	0xFF5
  6278                           prodh	equ	0xFF4
  6279                           prodl	equ	0xFF3
  6280                           intcon	equ	0xFF2
  6281                           postinc0	equ	0xFEE
  6282                           wreg	equ	0xFE8
  6283                           indf1	equ	0xFE7
  6284                           fsr1h	equ	0xFE2
  6285                           fsr1l	equ	0xFE1
  6286                           indf2	equ	0xFDF
  6287                           postinc2	equ	0xFDE
  6288                           postdec2	equ	0xFDD
  6289                           plusw2	equ	0xFDB
  6290                           fsr2h	equ	0xFDA
  6291                           fsr2l	equ	0xFD9
  6292                           status	equ	0xFD8
  6293                           
  6294 ;; *************** function _USBProtocolResetHandler *****************
  6295 ;; Defined at:
  6296 ;;		line 745 in file "../src/usb_device.c"
  6297 ;; Parameters:    Size  Location     Type
  6298 ;;		None
  6299 ;; Auto vars:     Size  Location     Type
  6300 ;;		None
  6301 ;; Return value:  Size  Location     Type
  6302 ;;		None               void
  6303 ;; Registers used:
  6304 ;;		wreg, fsr2l, fsr2h, status,2, status,0, cstack
  6305 ;; Tracked objects:
  6306 ;;		On entry : 0/0
  6307 ;;		On exit  : 0/0
  6308 ;;		Unchanged: 0/0
  6309 ;; Data sizes:     COMRAM   BANK0   BANK1   BANK2   BANK3  BANK4h   BANK5   BANK6   BANK7
  6310 ;;      Params:         0       0       0       0       0       0       0       0       0
  6311 ;;      Locals:         0       0       0       0       0       0       0       0       0
  6312 ;;      Temps:          1       0       0       0       0       0       0       0       0
  6313 ;;      Totals:         1       0       0       0       0       0       0       0       0
  6314 ;;Total ram usage:        1 bytes
  6315 ;; Hardware stack levels used:    1
  6316 ;; Hardware stack levels required when called:    2
  6317 ;; This function calls:
  6318 ;;		_ClearWatchdog
  6319 ;;		_LoadBDTandSetUOWN
  6320 ;;		_USBCBInitEP
  6321 ;; This function is called by:
  6322 ;;		_USBSoftAttach
  6323 ;;		_USBDeviceTasks
  6324 ;; This function uses a non-reentrant model
  6325 ;;
  6326                           
  6327                           	psect	text34
  6328  0018D4                     __ptext34:
  6329                           	opt stack 0
  6330  0018D4                     _USBProtocolResetHandler:
  6331                           	opt stack 26
  6332                           
  6333                           ;usb_device.c: 747: usb_device_state = 3;
  6334                           
  6335                           ;incstack = 0
  6336  0018D4  6E4C               	movwf	??_USBProtocolResetHandler& (0+255),c
  6337  0018D6  0E03               	movlw	3
  6338  0018D8  6E3A               	movwf	_usb_device_state,c
  6339  0018DA  504C               	movf	??_USBProtocolResetHandler& (0+255),w,c
  6340                           
  6341                           ;usb_device.c: 748: UEIE = 0;
  6342  0018DC  0E00               	movlw	0
  6343  0018DE  6E6B               	movwf	3947,c	;volatile
  6344                           
  6345                           ;usb_device.c: 749: UIR = 0;
  6346  0018E0  0E00               	movlw	0
  6347  0018E2  6E68               	movwf	3944,c	;volatile
  6348                           
  6349                           ;usb_device.c: 750: UIE = 0b01111011;
  6350  0018E4  0E7B               	movlw	123
  6351  0018E6  6E69               	movwf	3945,c	;volatile
  6352                           
  6353                           ;usb_device.c: 751: UADDR = 0x00;
  6354  0018E8  0E00               	movlw	0
  6355  0018EA  6E6E               	movwf	3950,c	;volatile
  6356                           
  6357                           ;usb_device.c: 752: UEP1=0x00;UEP2=0x00;UEP3=0x00; UEP4=0x00;UEP5=0x00;UEP6=0x00;UEP7=0x
      +                          00;;
  6358  0018EC  0E00               	movlw	0
  6359  0018EE  6E71               	movwf	3953,c	;volatile
  6360  0018F0  0E00               	movlw	0
  6361  0018F2  6E72               	movwf	3954,c	;volatile
  6362  0018F4  0E00               	movlw	0
  6363  0018F6  6E73               	movwf	3955,c	;volatile
  6364  0018F8  0E00               	movlw	0
  6365  0018FA  6E74               	movwf	3956,c	;volatile
  6366  0018FC  0E00               	movlw	0
  6367  0018FE  6E75               	movwf	3957,c	;volatile
  6368  001900  0E00               	movlw	0
  6369  001902  6E76               	movwf	3958,c	;volatile
  6370  001904  0E00               	movlw	0
  6371  001906  6E77               	movwf	3959,c	;volatile
  6372                           
  6373                           ;usb_device.c: 753: UEP0 = 0x06|0x10;
  6374  001908  0E16               	movlw	22
  6375  00190A  6E70               	movwf	3952,c	;volatile
  6376                           
  6377                           ;usb_device.c: 754: UCONbits.PPBRST = 1;
  6378  00190C  8C6D               	bsf	3949,6,c	;volatile
  6379                           
  6380                           ;usb_device.c: 755: while(UIRbits.TRNIF == 1)
  6381  00190E  D003               	goto	l2989
  6382  001910                     l498:
  6383                           
  6384                           ;usb_device.c: 756: {
  6385                           ;usb_device.c: 757: UIRbits.TRNIF = 0;
  6386  001910  9668               	bcf	3944,3,c	;volatile
  6387                           
  6388                           ;usb_device.c: 758: ClearWatchdog();
  6389  001912  EC02  F000         	call	_ClearWatchdog	;wreg free
  6390  001916                     l2989:
  6391  001916  B668               	btfsc	3944,3,c	;volatile
  6392  001918  D7FB               	goto	l498
  6393                           
  6394                           ;usb_device.c: 759: }
  6395                           ;usb_device.c: 760: UCONbits.PPBRST = 0;
  6396  00191A  9C6D               	bcf	3949,6,c	;volatile
  6397                           
  6398                           ;usb_device.c: 761: UCONbits.PKTDIS = 0;
  6399  00191C  986D               	bcf	3949,4,c	;volatile
  6400                           
  6401                           ;usb_device.c: 764: TempBDT.Stat._byte = 0x00|0x04;
  6402  00191E  6E4C               	movwf	??_USBProtocolResetHandler& (0+255),c
  6403  001920  0E04               	movlw	4
  6404  001922  6E05               	movwf	_TempBDT,c
  6405  001924  504C               	movf	??_USBProtocolResetHandler& (0+255),w,c
  6406                           
  6407                           ;usb_device.c: 765: LoadBDTandSetUOWN(0);
  6408  001926  0E00               	movlw	0
  6409  001928  EC70  F00D         	call	_LoadBDTandSetUOWN
  6410                           
  6411                           ;usb_device.c: 766: EP0OutOddNeedsArmingNext = 1;
  6412  00192C  6E4C               	movwf	??_USBProtocolResetHandler& (0+255),c
  6413  00192E  0E01               	movlw	1
  6414  001930  6E33               	movwf	_EP0OutOddNeedsArmingNext,c
  6415  001932  504C               	movf	??_USBProtocolResetHandler& (0+255),w,c
  6416                           
  6417                           ;usb_device.c: 767: usb_stat._byte = 0x00;
  6418  001934  6E4C               	movwf	??_USBProtocolResetHandler& (0+255),c
  6419  001936  0E00               	movlw	0
  6420  001938  6E3B               	movwf	_usb_stat,c
  6421  00193A  504C               	movf	??_USBProtocolResetHandler& (0+255),w,c
  6422                           
  6423                           ;usb_device.c: 768: usb_active_cfg = 0;
  6424  00193C  6E4C               	movwf	??_USBProtocolResetHandler& (0+255),c
  6425  00193E  0E00               	movlw	0
  6426  001940  6E48               	movwf	_usb_active_cfg,c
  6427  001942  504C               	movf	??_USBProtocolResetHandler& (0+255),w,c
  6428                           
  6429                           ;usb_device.c: 769: USBCBInitEP(0);
  6430  001944  0E00               	movlw	0
  6431  001946  EC93  F00E         	call	_USBCBInitEP
  6432  00194A  0012               	return	
  6433  00194C                     __end_of_USBProtocolResetHandler:
  6434                           	opt stack 0
  6435                           stkptr	equ	0xFFC
  6436                           tblptru	equ	0xFF8
  6437                           tblptrh	equ	0xFF7
  6438                           tblptrl	equ	0xFF6
  6439                           tablat	equ	0xFF5
  6440                           prodh	equ	0xFF4
  6441                           prodl	equ	0xFF3
  6442                           intcon	equ	0xFF2
  6443                           postinc0	equ	0xFEE
  6444                           wreg	equ	0xFE8
  6445                           indf1	equ	0xFE7
  6446                           fsr1h	equ	0xFE2
  6447                           fsr1l	equ	0xFE1
  6448                           indf2	equ	0xFDF
  6449                           postinc2	equ	0xFDE
  6450                           postdec2	equ	0xFDD
  6451                           plusw2	equ	0xFDB
  6452                           fsr2h	equ	0xFDA
  6453                           fsr2l	equ	0xFD9
  6454                           status	equ	0xFD8
  6455                           
  6456 ;; *************** function _USBCBInitEP *****************
  6457 ;; Defined at:
  6458 ;;		line 853 in file "../src/main.c"
  6459 ;; Parameters:    Size  Location     Type
  6460 ;;  Configuratio    1    wreg     unsigned char 
  6461 ;; Auto vars:     Size  Location     Type
  6462 ;;  Configuratio    1    1[COMRAM] unsigned char 
  6463 ;; Return value:  Size  Location     Type
  6464 ;;		None               void
  6465 ;; Registers used:
  6466 ;;		wreg, status,2, status,0, cstack
  6467 ;; Tracked objects:
  6468 ;;		On entry : 0/0
  6469 ;;		On exit  : 0/0
  6470 ;;		Unchanged: 0/0
  6471 ;; Data sizes:     COMRAM   BANK0   BANK1   BANK2   BANK3  BANK4h   BANK5   BANK6   BANK7
  6472 ;;      Params:         0       0       0       0       0       0       0       0       0
  6473 ;;      Locals:         1       0       0       0       0       0       0       0       0
  6474 ;;      Temps:          0       0       0       0       0       0       0       0       0
  6475 ;;      Totals:         1       0       0       0       0       0       0       0       0
  6476 ;;Total ram usage:        1 bytes
  6477 ;; Hardware stack levels used:    1
  6478 ;; Hardware stack levels required when called:    1
  6479 ;; This function calls:
  6480 ;;		_HIDInitEP
  6481 ;;		_UserInit
  6482 ;; This function is called by:
  6483 ;;		_USBProtocolResetHandler
  6484 ;;		_USBStdSetCfgHandler
  6485 ;; This function uses a non-reentrant model
  6486 ;;
  6487                           
  6488                           	psect	text35
  6489  001D26                     __ptext35:
  6490                           	opt stack 0
  6491  001D26                     _USBCBInitEP:
  6492                           	opt stack 26
  6493                           
  6494                           ;incstack = 0
  6495                           ;USBCBInitEP@ConfigurationIndex stored from wreg
  6496  001D26  CFE8 F04B          	movff	wreg,USBCBInitEP@ConfigurationIndex
  6497                           
  6498                           ;main.c: 862: if(ConfigurationIndex == 1)
  6499  001D2A  044B               	decf	USBCBInitEP@ConfigurationIndex,w,c
  6500  001D2C  A4D8               	btfss	status,2,c
  6501  001D2E  D004               	goto	l279
  6502                           
  6503                           ;main.c: 863: {
  6504                           ;main.c: 868: HIDInitEP();
  6505  001D30  EC9E  F00D         	call	_HIDInitEP	;wreg free
  6506                           
  6507                           ;main.c: 871: UserInit();
  6508  001D34  EC51  F00E         	call	_UserInit	;wreg free
  6509  001D38                     l279:
  6510  001D38  0012               	return	
  6511  001D3A                     __end_of_USBCBInitEP:
  6512                           	opt stack 0
  6513                           stkptr	equ	0xFFC
  6514                           tblptru	equ	0xFF8
  6515                           tblptrh	equ	0xFF7
  6516                           tblptrl	equ	0xFF6
  6517                           tablat	equ	0xFF5
  6518                           prodh	equ	0xFF4
  6519                           prodl	equ	0xFF3
  6520                           intcon	equ	0xFF2
  6521                           postinc0	equ	0xFEE
  6522                           wreg	equ	0xFE8
  6523                           indf1	equ	0xFE7
  6524                           fsr1h	equ	0xFE2
  6525                           fsr1l	equ	0xFE1
  6526                           indf2	equ	0xFDF
  6527                           postinc2	equ	0xFDE
  6528                           postdec2	equ	0xFDD
  6529                           plusw2	equ	0xFDB
  6530                           fsr2h	equ	0xFDA
  6531                           fsr2l	equ	0xFD9
  6532                           status	equ	0xFD8
  6533                           
  6534 ;; *************** function _UserInit *****************
  6535 ;; Defined at:
  6536 ;;		line 333 in file "../src/BootPIC18NonJ.c"
  6537 ;; Parameters:    Size  Location     Type
  6538 ;;		None
  6539 ;; Auto vars:     Size  Location     Type
  6540 ;;		None
  6541 ;; Return value:  Size  Location     Type
  6542 ;;		None               void
  6543 ;; Registers used:
  6544 ;;		status,2
  6545 ;; Tracked objects:
  6546 ;;		On entry : 0/0
  6547 ;;		On exit  : 0/0
  6548 ;;		Unchanged: 0/0
  6549 ;; Data sizes:     COMRAM   BANK0   BANK1   BANK2   BANK3  BANK4h   BANK5   BANK6   BANK7
  6550 ;;      Params:         0       0       0       0       0       0       0       0       0
  6551 ;;      Locals:         0       0       0       0       0       0       0       0       0
  6552 ;;      Temps:          1       0       0       0       0       0       0       0       0
  6553 ;;      Totals:         1       0       0       0       0       0       0       0       0
  6554 ;;Total ram usage:        1 bytes
  6555 ;; Hardware stack levels used:    1
  6556 ;; This function calls:
  6557 ;;		Nothing
  6558 ;; This function is called by:
  6559 ;;		_InitializeSystem
  6560 ;;		_USBCBInitEP
  6561 ;; This function uses a non-reentrant model
  6562 ;;
  6563                           
  6564                           	psect	text36
  6565  001CA2                     __ptext36:
  6566                           	opt stack 0
  6567  001CA2                     _UserInit:
  6568                           	opt stack 26
  6569                           
  6570                           ;BootPIC18NonJ.c: 336: BootState = 0x00;
  6571                           
  6572                           ;incstack = 0
  6573  001CA2  6E4A               	movwf	??_UserInit& (0+255),c
  6574  001CA4  0E00               	movlw	0
  6575  001CA6  6E2F               	movwf	_BootState,c
  6576  001CA8  504A               	movf	??_UserInit& (0+255),w,c
  6577                           
  6578                           ;BootPIC18NonJ.c: 337: ProgrammedPointer = 0xFFFFFFFF;
  6579  001CAA  6801               	setf	_ProgrammedPointer,c
  6580  001CAC  6802               	setf	_ProgrammedPointer+1,c
  6581  001CAE  6803               	setf	_ProgrammedPointer+2,c
  6582  001CB0  6804               	setf	_ProgrammedPointer+3,c
  6583                           
  6584                           ;BootPIC18NonJ.c: 338: BufferedDataIndex = 0;
  6585  001CB2  6E4A               	movwf	??_UserInit& (0+255),c
  6586  001CB4  0E00               	movlw	0
  6587  001CB6  6E30               	movwf	_BufferedDataIndex,c
  6588  001CB8  504A               	movf	??_UserInit& (0+255),w,c
  6589                           
  6590                           ;BootPIC18NonJ.c: 339: ConfigsLockValue = 1;
  6591  001CBA  6E4A               	movwf	??_UserInit& (0+255),c
  6592  001CBC  0E01               	movlw	1
  6593  001CBE  6E31               	movwf	_ConfigsLockValue,c
  6594  001CC0  504A               	movf	??_UserInit& (0+255),w,c
  6595  001CC2  0012               	return	
  6596  001CC4                     __end_of_UserInit:
  6597                           	opt stack 0
  6598                           stkptr	equ	0xFFC
  6599                           tblptru	equ	0xFF8
  6600                           tblptrh	equ	0xFF7
  6601                           tblptrl	equ	0xFF6
  6602                           tablat	equ	0xFF5
  6603                           prodh	equ	0xFF4
  6604                           prodl	equ	0xFF3
  6605                           intcon	equ	0xFF2
  6606                           postinc0	equ	0xFEE
  6607                           wreg	equ	0xFE8
  6608                           indf1	equ	0xFE7
  6609                           fsr1h	equ	0xFE2
  6610                           fsr1l	equ	0xFE1
  6611                           indf2	equ	0xFDF
  6612                           postinc2	equ	0xFDE
  6613                           postdec2	equ	0xFDD
  6614                           plusw2	equ	0xFDB
  6615                           fsr2h	equ	0xFDA
  6616                           fsr2l	equ	0xFD9
  6617                           status	equ	0xFD8
  6618                           
  6619 ;; *************** function _HIDInitEP *****************
  6620 ;; Defined at:
  6621 ;;		line 171 in file "../src/usb_device_hid.c"
  6622 ;; Parameters:    Size  Location     Type
  6623 ;;		None
  6624 ;; Auto vars:     Size  Location     Type
  6625 ;;		None
  6626 ;; Return value:  Size  Location     Type
  6627 ;;		None               void
  6628 ;; Registers used:
  6629 ;;		wreg, status,2, status,0
  6630 ;; Tracked objects:
  6631 ;;		On entry : 0/0
  6632 ;;		On exit  : 0/0
  6633 ;;		Unchanged: 0/0
  6634 ;; Data sizes:     COMRAM   BANK0   BANK1   BANK2   BANK3  BANK4h   BANK5   BANK6   BANK7
  6635 ;;      Params:         0       0       0       0       0       0       0       0       0
  6636 ;;      Locals:         0       0       0       0       0       0       0       0       0
  6637 ;;      Temps:          1       0       0       0       0       0       0       0       0
  6638 ;;      Totals:         1       0       0       0       0       0       0       0       0
  6639 ;;Total ram usage:        1 bytes
  6640 ;; Hardware stack levels used:    1
  6641 ;; This function calls:
  6642 ;;		Nothing
  6643 ;; This function is called by:
  6644 ;;		_USBCBInitEP
  6645 ;; This function uses a non-reentrant model
  6646 ;;
  6647                           
  6648                           	psect	text37
  6649  001B3C                     __ptext37:
  6650                           	opt stack 0
  6651  001B3C                     _HIDInitEP:
  6652                           	opt stack 26
  6653                           
  6654                           ;usb_device_hid.c: 173: hid_rpt_rx_len =0;
  6655                           
  6656                           ;incstack = 0
  6657  001B3C  6E4A               	movwf	??_HIDInitEP& (0+255),c
  6658  001B3E  0E00               	movlw	0
  6659  001B40  6E38               	movwf	_hid_rpt_rx_len,c
  6660  001B42  504A               	movf	??_HIDInitEP& (0+255),w,c
  6661                           
  6662                           ;usb_device_hid.c: 175: UEP1 = 0x0E|0x10;
  6663  001B44  0E1E               	movlw	30
  6664  001B46  6E71               	movwf	3953,c	;volatile
  6665                           
  6666                           ;usb_device_hid.c: 178: ep1Bo.Cnt = sizeof(hid_report_out);
  6667  001B48  0E40               	movlw	64
  6668  001B4A  0104               	movlb	4	; () banked
  6669  001B4C  0104               	movlb	4	; () banked
  6670  001B4E  6F0D               	movwf	13,b	;volatile
  6671                           
  6672                           ; BSR set to: 4
  6673                           ;usb_device_hid.c: 179: ep1Bo.ADR = (uint8_t*)&hid_report_out;
  6674  001B50  0104               	movlb	4	; () banked
  6675  001B52  0E04               	movlw	4	;volatile
  6676  001B54  0104               	movlb	4	; () banked
  6677  001B56  0104               	movlb	4	; () banked
  6678  001B58  6F0F               	movwf	15,b	;volatile
  6679  001B5A  0104               	movlb	4	; () banked
  6680  001B5C  0E2C               	movlw	44	;volatile
  6681  001B5E  0104               	movlb	4	; () banked
  6682  001B60  0104               	movlb	4	; () banked
  6683  001B62  6F0E               	movwf	14,b	;volatile
  6684                           
  6685                           ; BSR set to: 4
  6686                           ;usb_device_hid.c: 180: ep1Bo.Stat._byte = 0x00|0x08;
  6687  001B64  0E08               	movlw	8
  6688  001B66  0104               	movlb	4	; () banked
  6689  001B68  0104               	movlb	4	; () banked
  6690  001B6A  6F0C               	movwf	12,b	;volatile
  6691                           
  6692                           ;usb_device_hid.c: 181: ep1Bo.Stat._byte |= 0x80;
  6693  001B6C  0104               	movlb	4	; () banked
  6694  001B6E  0104               	movlb	4	; () banked
  6695  001B70  8F0C               	bsf	12,7,b	;volatile
  6696                           
  6697                           ; BSR set to: 4
  6698                           ;usb_device_hid.c: 194: ep1Bi.ADR = (uint8_t*)&hid_report_in;
  6699  001B72  0104               	movlb	4	; () banked
  6700  001B74  0E04               	movlw	4	;volatile
  6701  001B76  0104               	movlb	4	; () banked
  6702  001B78  0104               	movlb	4	; () banked
  6703  001B7A  6F13               	movwf	19,b	;volatile
  6704  001B7C  0104               	movlb	4	; () banked
  6705  001B7E  0E6C               	movlw	108	;volatile
  6706  001B80  0104               	movlb	4	; () banked
  6707  001B82  0104               	movlb	4	; () banked
  6708  001B84  6F12               	movwf	18,b	;volatile
  6709                           
  6710                           ; BSR set to: 4
  6711                           ;usb_device_hid.c: 195: ep1Bi.Stat._byte = 0x00|0x40;
  6712  001B86  0E40               	movlw	64
  6713  001B88  0104               	movlb	4	; () banked
  6714  001B8A  0104               	movlb	4	; () banked
  6715  001B8C  6F10               	movwf	16,b	;volatile
  6716                           
  6717                           ; BSR set to: 4
  6718  001B8E  0012               	return	
  6719  001B90                     __end_of_HIDInitEP:
  6720                           	opt stack 0
  6721                           stkptr	equ	0xFFC
  6722                           tblptru	equ	0xFF8
  6723                           tblptrh	equ	0xFF7
  6724                           tblptrl	equ	0xFF6
  6725                           tablat	equ	0xFF5
  6726                           prodh	equ	0xFF4
  6727                           prodl	equ	0xFF3
  6728                           intcon	equ	0xFF2
  6729                           postinc0	equ	0xFEE
  6730                           wreg	equ	0xFE8
  6731                           indf1	equ	0xFE7
  6732                           fsr1h	equ	0xFE2
  6733                           fsr1l	equ	0xFE1
  6734                           indf2	equ	0xFDF
  6735                           postinc2	equ	0xFDE
  6736                           postdec2	equ	0xFDD
  6737                           plusw2	equ	0xFDB
  6738                           fsr2h	equ	0xFDA
  6739                           fsr2l	equ	0xFD9
  6740                           status	equ	0xFD8
  6741                           
  6742 ;; *************** function _LoadBDTandSetUOWN *****************
  6743 ;; Defined at:
  6744 ;;		line 1584 in file "../src/usb_device.c"
  6745 ;; Parameters:    Size  Location     Type
  6746 ;;  BDTIndexToLo    1    wreg     unsigned char 
  6747 ;; Auto vars:     Size  Location     Type
  6748 ;;  BDTIndexToLo    1    1[COMRAM] unsigned char 
  6749 ;; Return value:  Size  Location     Type
  6750 ;;		None               void
  6751 ;; Registers used:
  6752 ;;		wreg, fsr2l, fsr2h, status,2, status,0
  6753 ;; Tracked objects:
  6754 ;;		On entry : 0/0
  6755 ;;		On exit  : 0/0
  6756 ;;		Unchanged: 0/0
  6757 ;; Data sizes:     COMRAM   BANK0   BANK1   BANK2   BANK3  BANK4h   BANK5   BANK6   BANK7
  6758 ;;      Params:         0       0       0       0       0       0       0       0       0
  6759 ;;      Locals:         1       0       0       0       0       0       0       0       0
  6760 ;;      Temps:          1       0       0       0       0       0       0       0       0
  6761 ;;      Totals:         2       0       0       0       0       0       0       0       0
  6762 ;;Total ram usage:        2 bytes
  6763 ;; Hardware stack levels used:    1
  6764 ;; This function calls:
  6765 ;;		Nothing
  6766 ;; This function is called by:
  6767 ;;		_USBProtocolResetHandler
  6768 ;;		_USBCtrlEPServiceComplete
  6769 ;; This function uses a non-reentrant model
  6770 ;;
  6771                           
  6772                           	psect	text38
  6773  001AE0                     __ptext38:
  6774                           	opt stack 0
  6775  001AE0                     _LoadBDTandSetUOWN:
  6776                           	opt stack 27
  6777                           
  6778                           ; BSR set to: 4
  6779                           ;incstack = 0
  6780                           ;LoadBDTandSetUOWN@BDTIndexToLoad stored from wreg
  6781  001AE0  CFE8 F04B          	movff	wreg,LoadBDTandSetUOWN@BDTIndexToLoad
  6782                           
  6783                           ;usb_device.c: 1586: static volatile BDT* pBDTEntry;
  6784                           ;usb_device.c: 1592: TempBDT.Cnt = 8;
  6785  001AE4  6E4A               	movwf	??_LoadBDTandSetUOWN& (0+255),c
  6786  001AE6  0E08               	movlw	8
  6787  001AE8  6E06               	movwf	_TempBDT+1,c
  6788  001AEA  504A               	movf	??_LoadBDTandSetUOWN& (0+255),w,c
  6789                           
  6790                           ;usb_device.c: 1593: TempBDT.ADR = (uint8_t*)&EP0OutOddBuf[0];
  6791  001AEC  0104               	movlb	4	; () banked
  6792  001AEE  0E04               	movlw	4	;volatile
  6793  001AF0  6E08               	movwf	_TempBDT+3,c
  6794  001AF2  0104               	movlb	4	; () banked
  6795  001AF4  0E1C               	movlw	28	;volatile
  6796  001AF6  6E07               	movwf	_TempBDT+2,c
  6797                           
  6798                           ; BSR set to: 4
  6799                           ;usb_device.c: 1594: if(BDTIndexToLoad == 0)
  6800  001AF8  664B               	tstfsz	LoadBDTandSetUOWN@BDTIndexToLoad,c
  6801  001AFA  D00A               	goto	l2487
  6802                           
  6803                           ; BSR set to: 4
  6804                           ;usb_device.c: 1595: {
  6805                           ;usb_device.c: 1596: TempBDT.ADR = (uint8_t*)&EP0OutEvenBuf[0];
  6806  001AFC  0104               	movlb	4	; () banked
  6807  001AFE  0E04               	movlw	4	;volatile
  6808  001B00  6E08               	movwf	_TempBDT+3,c
  6809  001B02  0104               	movlb	4	; () banked
  6810  001B04  0E14               	movlw	20	;volatile
  6811  001B06  6E07               	movwf	_TempBDT+2,c
  6812                           
  6813                           ;usb_device.c: 1597: pBDTEntry = (volatile BDT*)0x400;
  6814  001B08  0E04               	movlw	4
  6815  001B0A  6E1B               	movwf	LoadBDTandSetUOWN@pBDTEntry+1,c
  6816  001B0C  0E00               	movlw	0
  6817  001B0E  D003               	goto	L29
  6818  001B10                     l2487:
  6819                           
  6820                           ; BSR set to: 4
  6821                           ;usb_device.c: 1599: else
  6822                           ;usb_device.c: 1600: {
  6823                           ;usb_device.c: 1601: pBDTEntry = (volatile BDT*)(0x400 + 4);
  6824  001B10  0E04               	movlw	4
  6825  001B12  6E1B               	movwf	LoadBDTandSetUOWN@pBDTEntry+1,c
  6826  001B14  0E04               	movlw	4
  6827  001B16                     L29:
  6828  001B16  6E1A               	movwf	LoadBDTandSetUOWN@pBDTEntry,c
  6829                           
  6830                           ; BSR set to: 4
  6831                           ;usb_device.c: 1602: }
  6832                           ;usb_device.c: 1605: *pBDTEntry = TempBDT;
  6833                           
  6834                           ; BSR set to: 4
  6835  001B18  C01A  FFD9         	movff	LoadBDTandSetUOWN@pBDTEntry,fsr2l
  6836  001B1C  C01B  FFDA         	movff	LoadBDTandSetUOWN@pBDTEntry+1,fsr2h
  6837  001B20  C005  FFDE         	movff	_TempBDT,postinc2
  6838  001B24  C006  FFDE         	movff	_TempBDT+1,postinc2
  6839  001B28  C007  FFDE         	movff	_TempBDT+2,postinc2
  6840  001B2C  C008  FFDE         	movff	_TempBDT+3,postinc2
  6841                           
  6842                           ; BSR set to: 4
  6843                           ;usb_device.c: 1608: pBDTEntry->Stat.UOWN = 1;
  6844  001B30  C01A  FFD9         	movff	LoadBDTandSetUOWN@pBDTEntry,fsr2l
  6845  001B34  C01B  FFDA         	movff	LoadBDTandSetUOWN@pBDTEntry+1,fsr2h
  6846  001B38  8EDF               	bsf	indf2,7,c
  6847                           
  6848                           ; BSR set to: 4
  6849  001B3A  0012               	return	
  6850  001B3C                     __end_of_LoadBDTandSetUOWN:
  6851                           	opt stack 0
  6852                           stkptr	equ	0xFFC
  6853                           tblptru	equ	0xFF8
  6854                           tblptrh	equ	0xFF7
  6855                           tblptrl	equ	0xFF6
  6856                           tablat	equ	0xFF5
  6857                           prodh	equ	0xFF4
  6858                           prodl	equ	0xFF3
  6859                           intcon	equ	0xFF2
  6860                           postinc0	equ	0xFEE
  6861                           wreg	equ	0xFE8
  6862                           indf1	equ	0xFE7
  6863                           fsr1h	equ	0xFE2
  6864                           fsr1l	equ	0xFE1
  6865                           indf2	equ	0xFDF
  6866                           postinc2	equ	0xFDE
  6867                           postdec2	equ	0xFDD
  6868                           plusw2	equ	0xFDB
  6869                           fsr2h	equ	0xFDA
  6870                           fsr2l	equ	0xFD9
  6871                           status	equ	0xFD8
  6872                           
  6873 ;; *************** function _USBDisableWithLongDelay *****************
  6874 ;; Defined at:
  6875 ;;		line 1616 in file "../src/usb_device.c"
  6876 ;; Parameters:    Size  Location     Type
  6877 ;;		None
  6878 ;; Auto vars:     Size  Location     Type
  6879 ;;		None
  6880 ;; Return value:  Size  Location     Type
  6881 ;;		None               void
  6882 ;; Registers used:
  6883 ;;		wreg, status,2, status,0, cstack
  6884 ;; Tracked objects:
  6885 ;;		On entry : 0/0
  6886 ;;		On exit  : 0/0
  6887 ;;		Unchanged: 0/0
  6888 ;; Data sizes:     COMRAM   BANK0   BANK1   BANK2   BANK3  BANK4h   BANK5   BANK6   BANK7
  6889 ;;      Params:         0       0       0       0       0       0       0       0       0
  6890 ;;      Locals:         0       0       0       0       0       0       0       0       0
  6891 ;;      Temps:          1       0       0       0       0       0       0       0       0
  6892 ;;      Totals:         1       0       0       0       0       0       0       0       0
  6893 ;;Total ram usage:        1 bytes
  6894 ;; Hardware stack levels used:    1
  6895 ;; Hardware stack levels required when called:    2
  6896 ;; This function calls:
  6897 ;;		_DelayRoutine
  6898 ;; This function is called by:
  6899 ;;		_ResetDeviceCleanly
  6900 ;;		_USBDeviceInit
  6901 ;;		_USBSoftAttach
  6902 ;; This function uses a non-reentrant model
  6903 ;;
  6904                           
  6905                           	psect	text39
  6906  001CE0                     __ptext39:
  6907                           	opt stack 0
  6908  001CE0                     _USBDisableWithLongDelay:
  6909                           	opt stack 24
  6910                           
  6911                           ;usb_device.c: 1618: UCONbits.SUSPND = 0;
  6912                           
  6913                           ; BSR set to: 4
  6914                           ;incstack = 0
  6915  001CE0  926D               	bcf	3949,1,c	;volatile
  6916                           
  6917                           ;usb_device.c: 1619: UCON = 0x00;
  6918  001CE2  0E00               	movlw	0
  6919  001CE4  6E6D               	movwf	3949,c	;volatile
  6920                           
  6921                           ;usb_device.c: 1620: DelayRoutine(0xFFFF);
  6922  001CE6  0EFF               	movlw	255
  6923  001CE8  6E4B               	movwf	DelayRoutine@DelayAmount+1,c
  6924  001CEA  0EFF               	movlw	255
  6925  001CEC  6E4A               	movwf	DelayRoutine@DelayAmount,c
  6926  001CEE  EC7E  F00E         	call	_DelayRoutine	;wreg free
  6927                           
  6928                           ;usb_device.c: 1621: usb_device_state = 0;
  6929  001CF2  6E4C               	movwf	??_USBDisableWithLongDelay& (0+255),c
  6930  001CF4  0E00               	movlw	0
  6931  001CF6  6E3A               	movwf	_usb_device_state,c
  6932  001CF8  504C               	movf	??_USBDisableWithLongDelay& (0+255),w,c
  6933  001CFA  0012               	return	
  6934  001CFC                     __end_of_USBDisableWithLongDelay:
  6935                           	opt stack 0
  6936                           stkptr	equ	0xFFC
  6937                           tblptru	equ	0xFF8
  6938                           tblptrh	equ	0xFF7
  6939                           tblptrl	equ	0xFF6
  6940                           tablat	equ	0xFF5
  6941                           prodh	equ	0xFF4
  6942                           prodl	equ	0xFF3
  6943                           intcon	equ	0xFF2
  6944                           postinc0	equ	0xFEE
  6945                           wreg	equ	0xFE8
  6946                           indf1	equ	0xFE7
  6947                           fsr1h	equ	0xFE2
  6948                           fsr1l	equ	0xFE1
  6949                           indf2	equ	0xFDF
  6950                           postinc2	equ	0xFDE
  6951                           postdec2	equ	0xFDD
  6952                           plusw2	equ	0xFDB
  6953                           fsr2h	equ	0xFDA
  6954                           fsr2l	equ	0xFD9
  6955                           status	equ	0xFD8
  6956                           
  6957 ;; *************** function _DelayRoutine *****************
  6958 ;; Defined at:
  6959 ;;		line 1626 in file "../src/usb_device.c"
  6960 ;; Parameters:    Size  Location     Type
  6961 ;;  DelayAmount     2    0[COMRAM] unsigned int 
  6962 ;; Auto vars:     Size  Location     Type
  6963 ;;		None
  6964 ;; Return value:  Size  Location     Type
  6965 ;;		None               void
  6966 ;; Registers used:
  6967 ;;		wreg, status,2, status,0, cstack
  6968 ;; Tracked objects:
  6969 ;;		On entry : 0/0
  6970 ;;		On exit  : 0/0
  6971 ;;		Unchanged: 0/0
  6972 ;; Data sizes:     COMRAM   BANK0   BANK1   BANK2   BANK3  BANK4h   BANK5   BANK6   BANK7
  6973 ;;      Params:         2       0       0       0       0       0       0       0       0
  6974 ;;      Locals:         0       0       0       0       0       0       0       0       0
  6975 ;;      Temps:          0       0       0       0       0       0       0       0       0
  6976 ;;      Totals:         2       0       0       0       0       0       0       0       0
  6977 ;;Total ram usage:        2 bytes
  6978 ;; Hardware stack levels used:    1
  6979 ;; Hardware stack levels required when called:    1
  6980 ;; This function calls:
  6981 ;;		_ClearWatchdog
  6982 ;; This function is called by:
  6983 ;;		_USBCBWakeFromSuspend
  6984 ;;		_USBDisableWithLongDelay
  6985 ;; This function uses a non-reentrant model
  6986 ;;
  6987                           
  6988                           	psect	text40
  6989  001CFC                     __ptext40:
  6990                           	opt stack 0
  6991  001CFC                     _DelayRoutine:
  6992                           	opt stack 25
  6993                           
  6994                           ;usb_device.c: 1628: while(DelayAmount)
  6995                           
  6996                           ;incstack = 0
  6997  001CFC  D005               	goto	l2641
  6998  001CFE                     l2637:
  6999                           
  7000                           ;usb_device.c: 1629: {
  7001                           ;usb_device.c: 1630: ClearWatchdog();
  7002  001CFE  EC02  F000         	call	_ClearWatchdog	;wreg free
  7003                           
  7004                           ;usb_device.c: 1631: DelayAmount--;
  7005  001D02  064A               	decf	DelayRoutine@DelayAmount,f,c
  7006  001D04  A0D8               	btfss	status,0,c
  7007  001D06  064B               	decf	DelayRoutine@DelayAmount+1,f,c
  7008  001D08                     l2641:
  7009  001D08  504B               	movf	DelayRoutine@DelayAmount+1,w,c
  7010  001D0A  104A               	iorwf	DelayRoutine@DelayAmount,w,c
  7011  001D0C  B4D8               	btfsc	status,2,c
  7012  001D0E  0012               	return	
  7013  001D10  D7F6               	goto	l2637
  7014  001D12                     __end_of_DelayRoutine:
  7015                           	opt stack 0
  7016                           stkptr	equ	0xFFC
  7017                           tblptru	equ	0xFF8
  7018                           tblptrh	equ	0xFF7
  7019                           tblptrl	equ	0xFF6
  7020                           tablat	equ	0xFF5
  7021                           prodh	equ	0xFF4
  7022                           prodl	equ	0xFF3
  7023                           intcon	equ	0xFF2
  7024                           postinc0	equ	0xFEE
  7025                           wreg	equ	0xFE8
  7026                           indf1	equ	0xFE7
  7027                           fsr1h	equ	0xFE2
  7028                           fsr1l	equ	0xFE1
  7029                           indf2	equ	0xFDF
  7030                           postinc2	equ	0xFDE
  7031                           postdec2	equ	0xFDD
  7032                           plusw2	equ	0xFDB
  7033                           fsr2h	equ	0xFDA
  7034                           fsr2l	equ	0xFD9
  7035                           status	equ	0xFD8
  7036                           
  7037 ;; *************** function _ClearWatchdog *****************
  7038 ;; Defined at:
  7039 ;;		line 1643 in file "../src/usb_device.c"
  7040 ;; Parameters:    Size  Location     Type
  7041 ;;		None
  7042 ;; Auto vars:     Size  Location     Type
  7043 ;;		None
  7044 ;; Return value:  Size  Location     Type
  7045 ;;		None               void
  7046 ;; Registers used:
  7047 ;;		None
  7048 ;; Tracked objects:
  7049 ;;		On entry : 0/0
  7050 ;;		On exit  : 0/0
  7051 ;;		Unchanged: 0/0
  7052 ;; Data sizes:     COMRAM   BANK0   BANK1   BANK2   BANK3  BANK4h   BANK5   BANK6   BANK7
  7053 ;;      Params:         0       0       0       0       0       0       0       0       0
  7054 ;;      Locals:         0       0       0       0       0       0       0       0       0
  7055 ;;      Temps:          0       0       0       0       0       0       0       0       0
  7056 ;;      Totals:         0       0       0       0       0       0       0       0       0
  7057 ;;Total ram usage:        0 bytes
  7058 ;; Hardware stack levels used:    1
  7059 ;; This function calls:
  7060 ;;		Nothing
  7061 ;; This function is called by:
  7062 ;;		_ProcessIO
  7063 ;;		_SignFlash
  7064 ;;		_USBProtocolResetHandler
  7065 ;;		_DelayRoutine
  7066 ;; This function uses a non-reentrant model
  7067 ;;
  7068                           
  7069                           	psect	text41
  7070  000004                     __ptext41:
  7071                           	opt stack 0
  7072  000004                     _ClearWatchdog:
  7073                           	opt stack 25
  7074                           
  7075                           ;incstack = 0
  7076  000004  0004               	clrwdt		;# 
  7077  000006  0012               	return	
  7078  000008                     __end_of_ClearWatchdog:
  7079                           	opt stack 0
  7080                           stkptr	equ	0xFFC
  7081                           tblptru	equ	0xFF8
  7082                           tblptrh	equ	0xFF7
  7083                           tblptrl	equ	0xFF6
  7084                           tablat	equ	0xFF5
  7085                           prodh	equ	0xFF4
  7086                           prodl	equ	0xFF3
  7087                           intcon	equ	0xFF2
  7088                           postinc0	equ	0xFEE
  7089                           wreg	equ	0xFE8
  7090                           indf1	equ	0xFE7
  7091                           fsr1h	equ	0xFE2
  7092                           fsr1l	equ	0xFE1
  7093                           indf2	equ	0xFDF
  7094                           postinc2	equ	0xFDE
  7095                           postdec2	equ	0xFDD
  7096                           plusw2	equ	0xFDB
  7097                           fsr2h	equ	0xFDA
  7098                           fsr2l	equ	0xFD9
  7099                           status	equ	0xFD8
  7100                           
  7101 ;; *************** function _BlinkUSBStatus *****************
  7102 ;; Defined at:
  7103 ;;		line 681 in file "../src/main.c"
  7104 ;; Parameters:    Size  Location     Type
  7105 ;;		None
  7106 ;; Auto vars:     Size  Location     Type
  7107 ;;		None
  7108 ;; Return value:  Size  Location     Type
  7109 ;;		None               void
  7110 ;; Registers used:
  7111 ;;		wreg, status,2, status,0
  7112 ;; Tracked objects:
  7113 ;;		On entry : 0/0
  7114 ;;		On exit  : 0/0
  7115 ;;		Unchanged: 0/0
  7116 ;; Data sizes:     COMRAM   BANK0   BANK1   BANK2   BANK3  BANK4h   BANK5   BANK6   BANK7
  7117 ;;      Params:         0       0       0       0       0       0       0       0       0
  7118 ;;      Locals:         0       0       0       0       0       0       0       0       0
  7119 ;;      Temps:          1       0       0       0       0       0       0       0       0
  7120 ;;      Totals:         1       0       0       0       0       0       0       0       0
  7121 ;;Total ram usage:        1 bytes
  7122 ;; Hardware stack levels used:    1
  7123 ;; This function calls:
  7124 ;;		Nothing
  7125 ;; This function is called by:
  7126 ;;		_BootMain
  7127 ;; This function uses a non-reentrant model
  7128 ;;
  7129                           
  7130                           	psect	text42
  7131  001BE0                     __ptext42:
  7132                           	opt stack 0
  7133  001BE0                     _BlinkUSBStatus:
  7134                           	opt stack 29
  7135                           
  7136                           ;main.c: 684: static unsigned int led_count = 0;
  7137                           ;main.c: 686: led_count--;
  7138                           
  7139                           ;incstack = 0
  7140  001BE0  0618               	decf	BlinkUSBStatus@led_count,f,c
  7141  001BE2  A0D8               	btfss	status,0,c
  7142  001BE4  0619               	decf	BlinkUSBStatus@led_count+1,f,c
  7143                           
  7144                           ;main.c: 687: if(led_count == 0)
  7145  001BE6  5019               	movf	BlinkUSBStatus@led_count+1,w,c
  7146  001BE8  1018               	iorwf	BlinkUSBStatus@led_count,w,c
  7147  001BEA  A4D8               	btfss	status,2,c
  7148  001BEC  D015               	goto	l261
  7149                           
  7150                           ;main.c: 688: {
  7151                           ;main.c: 689: led_count = 0x4E00;
  7152  001BEE  0E4E               	movlw	78
  7153  001BF0  6E19               	movwf	BlinkUSBStatus@led_count+1,c
  7154  001BF2  0E00               	movlw	0
  7155  001BF4  6E18               	movwf	BlinkUSBStatus@led_count,c
  7156                           
  7157                           ;main.c: 690: if(usb_device_state < 6)
  7158  001BF6  0E06               	movlw	6
  7159  001BF8  5C3A               	subwf	_usb_device_state,w,c
  7160  001BFA  B0D8               	btfsc	status,0,c
  7161  001BFC  D002               	goto	l1379
  7162                           
  7163                           ;main.c: 691: {
  7164                           ;main.c: 692: LATDbits.LATD0 = 1;
  7165  001BFE  808C               	bsf	3980,0,c	;volatile
  7166                           
  7167                           ;main.c: 693: }
  7168  001C00  D00B               	goto	l261
  7169  001C02                     l1379:
  7170                           
  7171                           ;main.c: 694: else
  7172                           ;main.c: 695: {
  7173                           ;main.c: 696: LATDbits.LATD0 = !LATDbits.LATD0;
  7174  001C02  B08C               	btfsc	3980,0,c	;volatile
  7175  001C04  D002               	goto	u100
  7176  001C06  0E01               	movlw	1
  7177  001C08  D001               	goto	u106
  7178  001C0A                     u100:
  7179  001C0A  0E00               	movlw	0
  7180  001C0C                     u106:
  7181  001C0C  6E4A               	movwf	??_BlinkUSBStatus& (0+255),c
  7182  001C0E  508C               	movf	3980,w,c	;volatile
  7183  001C10  184A               	xorwf	??_BlinkUSBStatus,w,c
  7184  001C12  0BFE               	andlw	-2
  7185  001C14  184A               	xorwf	??_BlinkUSBStatus,w,c
  7186  001C16  6E8C               	movwf	3980,c	;volatile
  7187  001C18                     l261:
  7188  001C18  0012               	return	
  7189  001C1A                     __end_of_BlinkUSBStatus:
  7190                           	opt stack 0
  7191                           stkptr	equ	0xFFC
  7192                           tblptru	equ	0xFF8
  7193                           tblptrh	equ	0xFF7
  7194                           tblptrl	equ	0xFF6
  7195                           tablat	equ	0xFF5
  7196                           prodh	equ	0xFF4
  7197                           prodl	equ	0xFF3
  7198                           intcon	equ	0xFF2
  7199                           postinc0	equ	0xFEE
  7200                           wreg	equ	0xFE8
  7201                           indf1	equ	0xFE7
  7202                           fsr1h	equ	0xFE2
  7203                           fsr1l	equ	0xFE1
  7204                           indf2	equ	0xFDF
  7205                           postinc2	equ	0xFDE
  7206                           postdec2	equ	0xFDD
  7207                           plusw2	equ	0xFDB
  7208                           fsr2h	equ	0xFDA
  7209                           fsr2l	equ	0xFD9
  7210                           status	equ	0xFD8
  7211                           stkptr	equ	0xFFC
  7212                           tblptru	equ	0xFF8
  7213                           tblptrh	equ	0xFF7
  7214                           tblptrl	equ	0xFF6
  7215                           tablat	equ	0xFF5
  7216                           prodh	equ	0xFF4
  7217                           prodl	equ	0xFF3
  7218                           intcon	equ	0xFF2
  7219                           postinc0	equ	0xFEE
  7220                           wreg	equ	0xFE8
  7221                           indf1	equ	0xFE7
  7222                           fsr1h	equ	0xFE2
  7223                           fsr1l	equ	0xFE1
  7224                           indf2	equ	0xFDF
  7225                           postinc2	equ	0xFDE
  7226                           postdec2	equ	0xFDD
  7227                           plusw2	equ	0xFDB
  7228                           fsr2h	equ	0xFDA
  7229                           fsr2l	equ	0xFD9
  7230                           status	equ	0xFD8
  7231                           
  7232                           	psect	rparam
  7233  0000                     stkptr	equ	0xFFC
  7234                           tblptru	equ	0xFF8
  7235                           tblptrh	equ	0xFF7
  7236                           tblptrl	equ	0xFF6
  7237                           tablat	equ	0xFF5
  7238                           prodh	equ	0xFF4
  7239                           prodl	equ	0xFF3
  7240                           intcon	equ	0xFF2
  7241                           postinc0	equ	0xFEE
  7242                           wreg	equ	0xFE8
  7243                           indf1	equ	0xFE7
  7244                           fsr1h	equ	0xFE2
  7245                           fsr1l	equ	0xFE1
  7246                           indf2	equ	0xFDF
  7247                           postinc2	equ	0xFDE
  7248                           postdec2	equ	0xFDD
  7249                           plusw2	equ	0xFDB
  7250                           fsr2h	equ	0xFDA
  7251                           fsr2l	equ	0xFD9
  7252                           status	equ	0xFD8


Data Sizes:
    Strings     0
    Constant    188
    Data        0
    BSS         267
    Persistent  0
    Stack       0

Auto Spaces:
    Space          Size  Autos    Used
    COMRAM           95     15      88
    BANK0           160      0     130
    BANK1           256      0      64
    BANK2           256      0       0
    BANK3           256      0       0
    BANK4h           84      0       0
    BANK5           256      0       0
    BANK6           256      0       0
    BANK7           256      0       0

Pointer List with Targets:

    ep0BoEven.ADR	PTR unsigned char  size(2) Largest target is 0
		 -> hid_report_in(BIGRAMh[64]), hid_report_out(BIGRAMh[64]), EP0OutEvenBuf(ABS[8]), EP0OutOddBuf(BIGRAMh[8]), 
		 -> CtrlTrfData(BIGRAMh[8]), 

    ep0BoOdd.ADR	PTR unsigned char  size(2) Largest target is 0
		 -> hid_report_in(BIGRAMh[64]), hid_report_out(BIGRAMh[64]), EP0OutEvenBuf(ABS[8]), EP0OutOddBuf(BIGRAMh[8]), 
		 -> CtrlTrfData(BIGRAMh[8]), 

    NULL.ADR	PTR unsigned char  size(2) Largest target is 0
		 -> hid_report_in(BIGRAMh[64]), hid_report_out(BIGRAMh[64]), EP0OutEvenBuf(ABS[8]), EP0OutOddBuf(BIGRAMh[8]), 
		 -> CtrlTrfData(BIGRAMh[8]), 

    HIDRxReport@buffer	PTR unsigned char  size(2) Largest target is 65
		 -> PacketFromPC(BANK0[65]), 

    HIDTxReport@buffer	PTR unsigned char  size(2) Largest target is 65
		 -> PacketToPC(BANK0[65]), 

    ep1Bi.ADR	PTR unsigned char  size(2) Largest target is 64
		 -> hid_report_in(BIGRAMh[64]), hid_report_out(BIGRAMh[64]), EP0OutEvenBuf(ABS[8]), EP0OutOddBuf(BIGRAMh[8]), 
		 -> CtrlTrfData(BIGRAMh[8]), 

    ep1Bo.ADR	PTR unsigned char  size(2) Largest target is 64
		 -> hid_report_in(BIGRAMh[64]), hid_report_out(BIGRAMh[64]), EP0OutEvenBuf(ABS[8]), EP0OutOddBuf(BIGRAMh[8]), 
		 -> CtrlTrfData(BIGRAMh[8]), 

    LoadBDTandSetUOWN@pBDTEntry	PTR volatile struct _BDT size(2) Largest target is 2047
		 -> NULL(NULL[0]), RAM(DATA[2047]), 

    TempBDT.ADR	PTR unsigned char  size(2) Largest target is 64
		 -> hid_report_in(BIGRAMh[64]), hid_report_out(BIGRAMh[64]), EP0OutEvenBuf(ABS[8]), EP0OutOddBuf(BIGRAMh[8]), 
		 -> CtrlTrfData(BIGRAMh[8]), 

    ep0Bi.ADR	PTR unsigned char  size(2) Largest target is 64
		 -> hid_report_in(BIGRAMh[64]), hid_report_out(BIGRAMh[64]), EP0OutEvenBuf(ABS[8]), EP0OutOddBuf(BIGRAMh[8]), 
		 -> CtrlTrfData(BIGRAMh[8]), 

    USBDeviceTasks@pBDTEntry.ADR	PTR unsigned char  size(2) Largest target is 64
		 -> hid_report_in(BIGRAMh[64]), hid_report_out(BIGRAMh[64]), EP0OutEvenBuf(ABS[8]), EP0OutOddBuf(BIGRAMh[8]), 
		 -> CtrlTrfData(BIGRAMh[8]), 

    USBDeviceTasks@pBDTEntry	PTR volatile struct _BDT size(2) Largest target is 5
		 -> NULL(NULL[0]), ep0BoOdd(ABS[4]), ep0BoEven(BIGRAMll[4]), 

    ep0Bi...ADR	PTR unsigned char  size(2) Largest target is 64
		 -> hid_report_in(BIGRAMh[64]), hid_report_out(BIGRAMh[64]), EP0OutEvenBuf(ABS[8]), EP0OutOddBuf(BIGRAMh[8]), 
		 -> CtrlTrfData(BIGRAMh[8]), 

    ep0BoOdd...ADR	PTR unsigned char  size(2) Largest target is 64
		 -> hid_report_in(BIGRAMh[64]), hid_report_out(BIGRAMh[64]), EP0OutEvenBuf(ABS[8]), EP0OutOddBuf(BIGRAMh[8]), 
		 -> CtrlTrfData(BIGRAMh[8]), 

    ep0BoEven...ADR	PTR unsigned char  size(2) Largest target is 64
		 -> hid_report_in(BIGRAMh[64]), hid_report_out(BIGRAMh[64]), EP0OutEvenBuf(ABS[8]), EP0OutOddBuf(BIGRAMh[8]), 
		 -> CtrlTrfData(BIGRAMh[8]), 

    TempBDT...ADR	PTR unsigned char  size(2) Largest target is 64
		 -> hid_report_in(BIGRAMh[64]), hid_report_out(BIGRAMh[64]), EP0OutEvenBuf(ABS[8]), EP0OutOddBuf(BIGRAMh[8]), 
		 -> CtrlTrfData(BIGRAMh[8]), 

    pDst.wRom	PTR const unsigned short  size(2) Largest target is 0

    pDst.bRom	PTR const unsigned char  size(2) Largest target is 0

    pDst.wRam	PTR unsigned int  size(2) Largest target is 0

    pDst.bRam	PTR unsigned char  size(2) Largest target is 0

    S1162_POINTER$wRom	PTR const unsigned short  size(2) Largest target is 0

    pSrc.wRom	PTR const unsigned short  size(2) Largest target is 0

    S1162_POINTER$bRom	PTR const unsigned char  size(2) Largest target is 0

    pSrc.bRom	PTR const unsigned char  size(2) Largest target is 0

    S1162_POINTER$wRam	PTR unsigned int  size(2) Largest target is 0

    pSrc.wRam	PTR unsigned int  size(2) Largest target is 0

    S1162_POINTER$bRam	PTR unsigned char  size(2) Largest target is 0

    pSrc.bRam	PTR unsigned char  size(2) Largest target is 0

    USB_SD_Ptr	const PTR const unsigned char [3] size(2) Largest target is 52
		 -> sd002(CODE[38]), sd001(CODE[52]), sd000(CODE[4]), 

    WriteFlashBlock@pROM	PTR const unsigned char  size(3) Largest target is 8215
		 -> ROM(CODE[8215]), 

    SignFlash@pROM	PTR const unsigned char  size(3) Largest target is 8215
		 -> ROM(CODE[8215]), 

    ProcessIO@pROM	PTR const unsigned char  size(3) Largest target is 8215
		 -> ROM(CODE[8215]), 

    ep1Bi...ADR	PTR unsigned char  size(2) Largest target is 64
		 -> hid_report_in(BIGRAMh[64]), hid_report_out(BIGRAMh[64]), EP0OutEvenBuf(ABS[8]), EP0OutOddBuf(BIGRAMh[8]), 
		 -> CtrlTrfData(BIGRAMh[8]), 

    S130$ADR	PTR unsigned char  size(2) Largest target is 64
		 -> hid_report_in(BIGRAMh[64]), hid_report_out(BIGRAMh[64]), EP0OutEvenBuf(ABS[8]), EP0OutOddBuf(BIGRAMh[8]), 
		 -> CtrlTrfData(BIGRAMh[8]), 

    ep1Bo...ADR	PTR unsigned char  size(2) Largest target is 64
		 -> hid_report_in(BIGRAMh[64]), hid_report_out(BIGRAMh[64]), EP0OutEvenBuf(ABS[8]), EP0OutOddBuf(BIGRAMh[8]), 
		 -> CtrlTrfData(BIGRAMh[8]), 


Critical Paths under _main in COMRAM

    _BootMain->_ProcessIO
    _ProcessIO->_WriteFlashBlock
    _WriteFlashBlock->_UnlockAndActivate
    _WriteEEPROM->_UnlockAndActivate
    _WriteConfigBits->_UnlockAndActivate
    _USBDeviceTasks->_USBCtrlTrfSetupHandler
    _USBCBWakeFromSuspend->_DelayRoutine
    _USBCtrlTrfSetupHandler->_USBCheckStdRequest
    _USBCtrlEPServiceComplete->_LoadBDTandSetUOWN
    _USBCheckStdRequest->_USBStdFeatureReqHandler
    _USBCheckStdRequest->_USBStdGetStatusHandler
    _USBStdSetCfgHandler->_USBCBInitEP
    _USBCBCheckOtherReq->_USBCheckHIDRequest
    _USBCtrlTrfInHandler->_USBCtrlTrfTxService
    _SignFlash->_UnlockAndActivate
    _ResetDeviceCleanly->_USBDisableWithLongDelay
    _InitializeSystem->_USBDeviceInit
    _USBCheckBusStatus->_USBSoftAttach
    _USBSoftAttach->_USBDisableWithLongDelay
    _USBSoftAttach->_USBProtocolResetHandler
    _USBProtocolResetHandler->_LoadBDTandSetUOWN
    _USBProtocolResetHandler->_USBCBInitEP
    _USBCBInitEP->_HIDInitEP
    _USBCBInitEP->_UserInit
    _USBDisableWithLongDelay->_DelayRoutine

Critical Paths under _main in BANK0

    None.

Critical Paths under _main in BANK1

    None.

Critical Paths under _main in BANK2

    None.

Critical Paths under _main in BANK3

    None.

Critical Paths under _main in BANK4h

    None.

Critical Paths under _main in BANK5

    None.

Critical Paths under _main in BANK6

    None.

Critical Paths under _main in BANK7

    None.

Call Graph Tables:

 ---------------------------------------------------------------------------------
 (Depth) Function   	        Calls       Base Space   Used Autos Params    Refs
 ---------------------------------------------------------------------------------
 (0) _main                                                 2     2      0    2761
                                             13 COMRAM     2     2      0
                           _BootMain
 ---------------------------------------------------------------------------------
 (1) _BootMain                                             0     0      0    2761
                     _BlinkUSBStatus
                   _InitializeSystem
                    _LowVoltageCheck
                          _ProcessIO
                     _USBDeviceTasks
 ---------------------------------------------------------------------------------
 (2) _ProcessIO                                            4     4      0    1781
                                              9 COMRAM     4     4      0
                      _ClearWatchdog
                        _HIDRxReport
                        _HIDTxReport
                 _ResetDeviceCleanly
                          _SignFlash
                     _USBDeviceTasks
                  _UnlockAndActivate
                    _WriteConfigBits
                        _WriteEEPROM
                    _WriteFlashBlock
 ---------------------------------------------------------------------------------
 (3) _WriteFlashBlock                                      8     8      0      22
                                              1 COMRAM     8     8      0
                  _UnlockAndActivate
 ---------------------------------------------------------------------------------
 (3) _WriteEEPROM                                          4     4      0      22
                                              1 COMRAM     4     4      0
                  _UnlockAndActivate
 ---------------------------------------------------------------------------------
 (3) _WriteConfigBits                                      4     4      0      22
                                              1 COMRAM     4     4      0
                  _UnlockAndActivate
 ---------------------------------------------------------------------------------
 (2) _USBDeviceTasks                                       2     2      0     534
                                              6 COMRAM     2     2      0
                  _USBCheckBusStatus
                _USBCtrlTrfInHandler
             _USBCtrlTrfSetupHandler
            _USBProtocolResetHandler
                         _USBSuspend
                 _USBWakeFromSuspend
 ---------------------------------------------------------------------------------
 (3) _USBWakeFromSuspend                                   0     0      0     201
               _USBCBWakeFromSuspend
 ---------------------------------------------------------------------------------
 (4) _USBCBWakeFromSuspend                                 0     0      0     201
                       _DelayRoutine
 ---------------------------------------------------------------------------------
 (3) _USBSuspend                                           0     0      0       0
                       _USBCBSuspend
 ---------------------------------------------------------------------------------
 (4) _USBCBSuspend                                         0     0      0       0
 ---------------------------------------------------------------------------------
 (3) _USBCtrlTrfSetupHandler                               1     1      0      44
                                              5 COMRAM     1     1      0
                 _USBCBCheckOtherReq
                 _USBCheckStdRequest
           _USBCtrlEPServiceComplete
 ---------------------------------------------------------------------------------
 (4) _USBCtrlEPServiceComplete                             1     1      0      22
                                              2 COMRAM     1     1      0
                  _LoadBDTandSetUOWN
                _USBCtrlTrfTxService
 ---------------------------------------------------------------------------------
 (4) _USBCheckStdRequest                                   1     1      0      22
                                              4 COMRAM     1     1      0
            _USBStdFeatureReqHandler
                _USBStdGetDscHandler
             _USBStdGetStatusHandler
                _USBStdSetCfgHandler
 ---------------------------------------------------------------------------------
 (5) _USBStdSetCfgHandler                                  1     1      0      22
                                              2 COMRAM     1     1      0
                        _USBCBInitEP
 ---------------------------------------------------------------------------------
 (5) _USBStdGetStatusHandler                               4     4      0       0
                                              0 COMRAM     4     4      0
 ---------------------------------------------------------------------------------
 (5) _USBStdGetDscHandler                                  1     1      0       0
                                              0 COMRAM     1     1      0
 ---------------------------------------------------------------------------------
 (5) _USBStdFeatureReqHandler                              4     4      0       0
                                              0 COMRAM     4     4      0
 ---------------------------------------------------------------------------------
 (4) _USBCBCheckOtherReq                                   0     0      0       0
                 _USBCheckHIDRequest
 ---------------------------------------------------------------------------------
 (5) _USBCheckHIDRequest                                   1     1      0       0
                                              0 COMRAM     1     1      0
                _HIDGetReportHandler
                _HIDSetReportHandler
 ---------------------------------------------------------------------------------
 (6) _HIDSetReportHandler                                  0     0      0       0
 ---------------------------------------------------------------------------------
 (6) _HIDGetReportHandler                                  0     0      0       0
 ---------------------------------------------------------------------------------
 (3) _USBCtrlTrfInHandler                                  1     1      0       0
                                              1 COMRAM     1     1      0
                _USBCtrlTrfTxService
 ---------------------------------------------------------------------------------
 (5) _USBCtrlTrfTxService                                  1     1      0       0
                                              0 COMRAM     1     1      0
 ---------------------------------------------------------------------------------
 (3) _SignFlash                                            4     4      0      22
                                              1 COMRAM     4     4      0
                      _ClearWatchdog
                  _UnlockAndActivate
 ---------------------------------------------------------------------------------
 (4) _UnlockAndActivate                                    1     1      0      22
                                              0 COMRAM     1     1      0
                    _LowVoltageCheck
 ---------------------------------------------------------------------------------
 (5) _LowVoltageCheck                                      0     0      0       0
 ---------------------------------------------------------------------------------
 (3) _ResetDeviceCleanly                                   0     0      0     201
            _USBDisableWithLongDelay
 ---------------------------------------------------------------------------------
 (3) _HIDTxReport                                          5     2      3     691
                                              0 COMRAM     5     2      3
 ---------------------------------------------------------------------------------
 (3) _HIDRxReport                                          4     1      3     245
                                              0 COMRAM     4     1      3
 ---------------------------------------------------------------------------------
 (2) _InitializeSystem                                     0     0      0     446
                      _USBDeviceInit
                           _UserInit
 ---------------------------------------------------------------------------------
 (3) _USBDeviceInit                                        1     1      0     446
                                              4 COMRAM     1     1      0
                  _USBCheckBusStatus
            _USBDisableWithLongDelay
 ---------------------------------------------------------------------------------
 (3) _USBCheckBusStatus                                    0     0      0     245
                      _USBSoftAttach
 ---------------------------------------------------------------------------------
 (4) _USBSoftAttach                                        1     1      0     245
                                              3 COMRAM     1     1      0
            _USBDisableWithLongDelay
            _USBProtocolResetHandler
 ---------------------------------------------------------------------------------
 (3) _USBProtocolResetHandler                              1     1      0      44
                                              2 COMRAM     1     1      0
                      _ClearWatchdog
                  _LoadBDTandSetUOWN
                        _USBCBInitEP
 ---------------------------------------------------------------------------------
 (4) _USBCBInitEP                                          1     1      0      22
                                              1 COMRAM     1     1      0
                          _HIDInitEP
                           _UserInit
 ---------------------------------------------------------------------------------
 (5) _UserInit                                             1     1      0       0
                                              0 COMRAM     1     1      0
 ---------------------------------------------------------------------------------
 (5) _HIDInitEP                                            1     1      0       0
                                              0 COMRAM     1     1      0
 ---------------------------------------------------------------------------------
 (4) _LoadBDTandSetUOWN                                    2     2      0      22
                                              0 COMRAM     2     2      0
 ---------------------------------------------------------------------------------
 (5) _USBDisableWithLongDelay                              1     1      0     201
                                              2 COMRAM     1     1      0
                       _DelayRoutine
 ---------------------------------------------------------------------------------
 (5) _DelayRoutine                                         2     0      2     201
                                              0 COMRAM     2     0      2
                      _ClearWatchdog
 ---------------------------------------------------------------------------------
 (6) _ClearWatchdog                                        0     0      0       0
 ---------------------------------------------------------------------------------
 (2) _BlinkUSBStatus                                       1     1      0       0
                                              0 COMRAM     1     1      0
 ---------------------------------------------------------------------------------
 Estimated maximum stack depth 6
 ---------------------------------------------------------------------------------

 Call Graph Graphs:

 _main (ROOT)
   _BootMain
     _BlinkUSBStatus
     _InitializeSystem
       _USBDeviceInit
         _USBCheckBusStatus
           _USBSoftAttach
             _USBDisableWithLongDelay
               _DelayRoutine
                 _ClearWatchdog
             _USBProtocolResetHandler
               _ClearWatchdog
               _LoadBDTandSetUOWN
               _USBCBInitEP
                 _HIDInitEP
                 _UserInit
         _USBDisableWithLongDelay
           _DelayRoutine
             _ClearWatchdog
       _UserInit
     _LowVoltageCheck
     _ProcessIO
       _ClearWatchdog
       _HIDRxReport
       _HIDTxReport
       _ResetDeviceCleanly
         _USBDisableWithLongDelay
           _DelayRoutine
             _ClearWatchdog
       _SignFlash
         _ClearWatchdog
         _UnlockAndActivate
           _LowVoltageCheck
       _USBDeviceTasks
         _USBCheckBusStatus
           _USBSoftAttach
             _USBDisableWithLongDelay
               _DelayRoutine
                 _ClearWatchdog
             _USBProtocolResetHandler
               _ClearWatchdog
               _LoadBDTandSetUOWN
               _USBCBInitEP
                 _HIDInitEP
                 _UserInit
         _USBCtrlTrfInHandler
           _USBCtrlTrfTxService
         _USBCtrlTrfSetupHandler
           _USBCBCheckOtherReq
             _USBCheckHIDRequest
               _HIDGetReportHandler
               _HIDSetReportHandler
           _USBCheckStdRequest
             _USBStdFeatureReqHandler
             _USBStdGetDscHandler
             _USBStdGetStatusHandler
             _USBStdSetCfgHandler
               _USBCBInitEP
                 _HIDInitEP
                 _UserInit
           _USBCtrlEPServiceComplete
             _LoadBDTandSetUOWN
             _USBCtrlTrfTxService
         _USBProtocolResetHandler
           _ClearWatchdog
           _LoadBDTandSetUOWN
           _USBCBInitEP
             _HIDInitEP
             _UserInit
         _USBSuspend
           _USBCBSuspend
         _USBWakeFromSuspend
           _USBCBWakeFromSuspend
             _DelayRoutine
               _ClearWatchdog
       _UnlockAndActivate
         _LowVoltageCheck
       _WriteConfigBits
         _UnlockAndActivate
           _LowVoltageCheck
       _WriteEEPROM
         _UnlockAndActivate
           _LowVoltageCheck
       _WriteFlashBlock
         _UnlockAndActivate
           _LowVoltageCheck
     _USBDeviceTasks
       _USBCheckBusStatus
         _USBSoftAttach
           _USBDisableWithLongDelay
             _DelayRoutine
               _ClearWatchdog
           _USBProtocolResetHandler
             _ClearWatchdog
             _LoadBDTandSetUOWN
             _USBCBInitEP
               _HIDInitEP
               _UserInit
       _USBCtrlTrfInHandler
         _USBCtrlTrfTxService
       _USBCtrlTrfSetupHandler
         _USBCBCheckOtherReq
           _USBCheckHIDRequest
             _HIDGetReportHandler
             _HIDSetReportHandler
         _USBCheckStdRequest
           _USBStdFeatureReqHandler
           _USBStdGetDscHandler
           _USBStdGetStatusHandler
           _USBStdSetCfgHandler
             _USBCBInitEP
               _HIDInitEP
               _UserInit
         _USBCtrlEPServiceComplete
           _LoadBDTandSetUOWN
           _USBCtrlTrfTxService
       _USBProtocolResetHandler
         _ClearWatchdog
         _LoadBDTandSetUOWN
         _USBCBInitEP
           _HIDInitEP
           _UserInit
       _USBSuspend
         _USBCBSuspend
       _USBWakeFromSuspend
         _USBCBWakeFromSuspend
           _DelayRoutine
             _ClearWatchdog

 Address spaces:
Name               Size   Autos  Total    Cost      Usage
BIGRAMll           3FF      0       0      22        0.0%
BIGRAMh            354      0       0      21        0.0%
EEDATA             100      0       0       0        0.0%
BITBANK7           100      0       0      19        0.0%
BANK7              100      0       0      20        0.0%
BITBANK6           100      0       0      17        0.0%
BANK6              100      0       0      18        0.0%
BITBANK5           100      0       0      14        0.0%
BANK5              100      0       0      15        0.0%
BITBANK3           100      0       0      10        0.0%
BANK3              100      0       0      11        0.0%
BITBANK2           100      0       0       8        0.0%
BANK2              100      0       0       9        0.0%
BITBANK1           100      0       0       6        0.0%
BANK1              100      0      40       7       25.0%
BITBANK0            A0      0       0       4        0.0%
BANK0               A0      0      82       5       81.3%
BITCOMRAM           5F      0       0       0        0.0%
COMRAM              5F      F      58       1       92.6%
BANK4h              54      0       0      13        0.0%
BITBANK4h           54      0       0      12        0.0%
BITSFR               0      0       0      40        0.0%
SFR                  0      0       0      40        0.0%
STACK                0      0       0       2        0.0%
NULL                 0      0       0       0        0.0%
ABS                  0      0     11A      16        0.0%
DATA                 0      0     11A       3        0.0%
CODE                 0      0       0       0        0.0%


Microchip Technology PIC18 Macro Assembler V1.30 build 55553 
Symbol Table                                                                                   Fri Feb 14 14:32:26 2014

              __end_of_ClearWatchdog 0008                 __size_of_WriteEEPROM 006A  
    __end_of_USBDisableWithLongDelay 1CFC                         _usb_alt_intf 0049  
                         _USB_SD_Ptr 0801                         ?_HIDRxReport 004A  
                 ?_LoadBDTandSetUOWN 004A                       _BlinkUSBStatus 1BE0  
                       ?_HIDTxReport 004A                                   l92 091E  
                                 l85 0E82                          __CFG_BOR$ON 000000  
                      _USBDeviceInit 1D12                          __CFG_BORV$3 000000  
                 _USBCheckHIDRequest 10A2                         __CFG_CP0$OFF 000000  
                       __CFG_CP1$OFF 000000                                  l152 100C  
                                l138 0F98                                  l154 103C  
                                l155 1036                                  l261 1C18  
                                l181 1C5E                                  l157 1042  
        __end_of_USBStdGetDscHandler 1732                                  l271 1D5C  
                                l247 003C                                  l184 1C6E  
                                l512 1BC6                                  l600 152A  
                                l601 1528                                  l275 1D66  
                                l604 159C                                  l517 1BDE  
                                l534 1688                                  l470 11CC  
                                l279 1D38                                  l455 1D82  
                                l463 11A4                                  l608 15C6  
                                l552 143E                                  l464 1286  
                                l537 12C4                                  l481 127C  
                                l491 1D46                                  l572 172E  
                                l548 1370                                  l492 1D44  
                                l709 17CC                                  l573 16AE  
                                l582 1A00                                  l672 110C  
                                l576 1730                                  l498 1910  
                                l674 10EC                                  l667 1198  
                                l597 1502                                  l697 17DC  
                       __CFG_CPB$OFF 000000                                  u100 1C0A  
                                u106 1C0C                                  _UIE 000F69  
                                _UIR 000F68                  ??_LoadBDTandSetUOWN 004A  
                         _USBSuspend 1CC4                 USBStdSetCfgHandler@i 0028  
                                prod 000FF3                                  wreg 000FE8  
                     _USBDeviceTasks 119A                  ?_USBCheckHIDRequest 004A  
             ??_USBCBWakeFromSuspend 004C                         __CFG_LVP$OFF 000000  
                       __CFG_WDT$OFF 000000                                 l3103 13FE  
                               l3121 1A44                                 l3035 1A14  
                               l2501 15EA                                 l3205 127E  
                               l2431 1782                                 l3071 1380  
                               l3127 1A5A                                 l2505 15F8  
                               l3073 1390                                 l3233 08FC  
                               l1379 1C02                                 l2427 1758  
                               l2515 1616                                 l2523 164A  
                               l3075 1396                                 l3323 0B32  
                               l3315 0B1C                                 l2453 1810  
                               l2525 1650                                 l2533 1684  
                               l3085 13B2                                 l3077 139C  
                               l3333 0B66                                 l2631 1C64  
                               l2551 16CC                                 l3087 13B8  
                               l3271 0A94                                 l2641 1D08  
                               l2449 17E6                                 l2713 1172  
                               l3097 13E0                                 l3089 13BE  
                               l2801 1332                                 l3177 11F0  
                               l3441 0E36                                 l3353 0C16  
                               l3337 0B9A                                 l3329 0B44  
                               l3265 0A7A                                 l2707 1164  
                               l2619 15AE                                 l2539 1694  
                               l2571 1466                                 l2563 1452  
                               l3443 0E3A                                 l2637 1CFE  
                               l2741 1BA8                                 l2661 10BE  
                               l2573 1470                                 l3189 121C  
                               l3349 0C08                                 l3445 0E44  
                               l2487 1B10                                 l2743 1BB0  
                               l2559 171A                                 l2583 14D0  
                               l2807 1344                                 l3199 126C  
                               l2823 187A                                 l2831 18C6  
                               l3391 0D3C                                 l3383 0D0E  
                               l3359 0C24                                 l3295 0AE4  
                               l2585 14E6                                 l3369 0C5E  
                               l3385 0D10                                 l3297 0AEC  
                               l2923 0F16                                 l2755 1BD0  
                               l2683 111E                                 l2667 10D6  
                               l2771 12B4                                 l2835 1956  
                               l3395 0D42                                 l3379 0CB8  
                               l2685 1124                                 l2677 10FC  
                               l2781 12E4                                 l2845 19A8  
                               l3485 1AD8                                 l3477 1A92  
                               l2695 113A                                 l2687 112A  
                               l2679 110E                                 l3479 1A96  
                               l2945 0F94                                 l2939 0F80  
                               l2699 1148                                 l2795 1312  
                               l2885 1060                                 l2889 1098  
                               l2899 0E9A                                 l2989 1916  
              ??_HIDSetReportHandler 004A                                 u1260 17A4  
                               u1430 1710                                 u1266 17A6  
                               u1290 182E                                 u1370 163E  
                               u1450 149C                                 u1540 156E  
                               u1437 1706                                 u2325 0B8C  
                               u1390 1678                                 u1296 1830  
                               u1377 1634                                 u1458 149E  
                               u1548 1570                                 u1397 166E  
                               u1880 0F32                                 u1885 0F28  
              ??_USBCtrlTrfTxService 004A                                 _UCFG 000F6F  
                               _UEP0 000F70                                 _UEP1 000F71  
                               _UEP2 000F72                                 _UEP3 000F73  
                               _UEP4 000F74                                 _UEP5 000F75  
                               _UEP6 000F76                                 _UEP7 000F77  
                               _UEIE 000F6B                                 _UCON 000F6D  
                 __size_of_HIDInitEP 0054                                 _pDst 0012  
                               _pSrc 0015                                 _main 1A82  
             __size_of_USBSoftAttach 002C                                 fsr1h 000FE2  
                               fsr2h 000FDA                                 indf1 000FE7  
                               fsr1l 000FE1                                 indf2 000FDF  
                               fsr2l 000FD9                                 prodh 000FF4  
                               prodl 000FF3            __end_of_LoadBDTandSetUOWN 1B3C  
                               start 0000              BlinkUSBStatus@led_count 0018  
                      __CFG_IESO$OFF 000000                   _USBCBCheckOtherReq 1D84  
               ??_USBCheckHIDRequest 004A           __end_of_USBCheckStdRequest 1440  
                      __CFG_MCLRE$ON 000000            ??_USBStdFeatureReqHandler 004A  
             __end_of_BlinkUSBStatus 1C1A             ??_USBStdGetStatusHandler 004A  
                     ?_USBDeviceInit 004A                  ?_USBCBCheckOtherReq 004A  
                      __CFG_PLLDIV$5 000000                                _CFG01 083B  
                              ?_main 004A                                _EEADR 000FA9  
  __size_of_USBCtrlEPServiceComplete 00EA           LoadBDTandSetUOWN@pBDTEntry 001A  
             __end_of_USBDeviceTasks 1288            ?_USBCtrlEPServiceComplete 004A  
                              _UADDR 000F6E                        __CFG_USBDIV$2 000000  
                              _USTAT 000F6C                        __CFG_PWRT$OFF 000000  
                  HIDRxReport@buffer 004A                        __CFG_WRT0$OFF 000000  
                      __CFG_WRT1$OFF 000000                       __CFG_EBTR0$OFF 000000  
                     __CFG_FCMEN$OFF 000000                       __CFG_EBTR1$OFF 000000  
                              _ep0Bi 000408                                _ep1Bi 000410  
                              _ep1Bo 00040C                                _sd000 08B9  
                              _sd001 0807                                _sd002 0864  
                      __CFG_WRTB$OFF 000000                        __CFG_WRTC$OFF 000000  
                     __CFG_EBTRB$OFF 000000                 ??_USBCBCheckOtherReq 004B  
                   _usb_device_state 003A                         HIDTxReport@i 004E  
                              tablat 000FF5                    USBSuspend@UIESave 0029  
                              plusw2 000FDB                     _ConfigsLockValue 0031  
                              status 000FD8           __size_of_UnlockAndActivate 002E  
                  _BufferedDataIndex 0030                           _PacketToPC 00A1  
       __size_of_USBStdSetCfgHandler 0068                     __end_of_BootMain 0050  
                    __initialization 1C1A                      ?_BlinkUSBStatus 004A  
                       __end_of_main 1AE0                           SignFlash@i 0025  
                  __end_of_HIDInitEP 1B90                        _USBSoftAttach 1C76  
                             ??_main 0057            __size_of_InitializeSystem 000E  
                      __activetblptr 000002                      ?_USBDeviceTasks 004A  
                        ?_USBSuspend 004A                     __end_of_UserInit 1CC4  
                             _ADCON1 000FC1                        SignFlash@pROM 000C  
                             _EEDATA 000FA8                               _EECON1 000FA6  
                             _EECON2 000FA7     __size_of_USBDisableWithLongDelay 001C  
                             _INTCON 000FF2                               _TABLAT 000FF5  
              __size_of_DelayRoutine 0016                               _OSCCON 000FD3  
                WriteFlashBlock@pROM 000F                               _STKPTR 000FFC  
                     __CFG_VREGEN$ON 000000           __size_of_LoadBDTandSetUOWN 005C  
                     __CFG_XINST$OFF 000000                      USBDeviceTasks@i 0027  
                    ??_USBDeviceInit 004E                       __CFG_STVREN$ON 000000  
                       ?_USBCBInitEP 004A                   __size_of_SignFlash 0116  
                             _wCount 0044      __size_of_USBStdGetStatusHandler 00C4  
                             clear_0 1C20                               clear_1 1C2C  
                             clear_2 1C38                       ?_USBSoftAttach 004A  
       __size_of_HIDGetReportHandler 0002                 __size_of_HIDRxReport 009C  
                         ProcessIO@i 0024                 __size_of_HIDTxReport 008A  
WriteFlashBlock@BytesTakenFromBuffer 002C                   __size_of_ProcessIO 05C6  
                       _DelayRoutine 1CFC                         __mediumconst 0000  
                             tblptrh 000FF7                               tblptrl 000FF6  
                             tblptru 000FF8                 _DeviceIsSoftDetached 0032  
        __size_of_ResetDeviceCleanly 000C                         WriteEEPROM@i 002B  
                        _CtrlTrfData 000424                           __accesstop 0060  
            __end_of__initialization 1C3E                      __CFG_PBADEN$OFF 000000  
                      __end_of_CFG01 0864                          _bTRNIFCount 0035  
         UnlockAndActivate@UnlockKey 004A                  __size_of_USBSuspend 001C  
                     __pcstackCOMRAM 004A                        __end_of_sd000 08BD  
                      __end_of_sd001 083B                        __end_of_sd002 088A  
                    _active_protocol 0046          __end_of_USBCtrlTrfInHandler 1BE0  
   USBCtrlTrfTxService@bytes_to_send 0026             __size_of_WriteFlashBlock 0108  
           __size_of_WriteConfigBits 007C             ??_USBCtrlTrfSetupHandler 004F  
                          ?_BootMain 004A               _USBStdGetStatusHandler 1440  
                  __end_of_SignFlash 0F9A                           __pbssBANK0 0060  
                         __pbssBANK1 0100                        ??_WriteEEPROM 004B  
        __size_of_USBWakeFromSuspend 0012                         _EP0OutOddBuf 00041C  
                  __end_of_ProcessIO 0E84     __end_of_USBCtrlEPServiceComplete 1372  
           ?_USBProtocolResetHandler 004A              DelayRoutine@DelayAmount 004A  
                    ??_USBSoftAttach 004D                            ?_UserInit 004A  
           __size_of_LowVoltageCheck 0002                           _device_dsc 08A7  
            USBDeviceTasks@pBDTEntry 001C                     _InitializeSystem 1D68  
                 _USBCheckStdRequest 1372          __end_of_HIDSetReportHandler 1D8C  
        __end_of_USBCtrlTrfTxService 168A                  _USBStdSetCfgHandler 19B6  
                            _TBLPTRH 000FF7                              _TBLPTRL 000FF6  
                            _TBLPTRU 000FF8                           ??_BootMain 0057  
                ?_USBCheckStdRequest 004A         __size_of_USBStdGetDscHandler 00A8  
             __size_of_ClearWatchdog 0004              _USBDisableWithLongDelay 1CE0  
                            _UIEbits 000F69        __size_of_USBCBWakeFromSuspend 000E  
                            _UIRbits 000F68      _FlashSignatureWord_absconstaddr 002006  
                     HIDRxReport@len 004C                     ??_BlinkUSBStatus 004A  
                            _Counter 001E                              __Hparam 0000  
                            _TempBDT 0005                 ?_USBStdSetCfgHandler 004A  
        __size_of_USBCheckHIDRequest 00F8                              __Lparam 0000  
                  __end_of_hid_rpt01 08A7                 ??_USBCheckStdRequest 004E  
      USBCBInitEP@ConfigurationIndex 004B                     ??_USBDeviceTasks 0050  
                __end_of_WriteEEPROM 19B6                           ??_UserInit 004A  
                       __psmallconst 0800                              __pcinit 1C1A  
                            __ramtop 0800                 __size_of_USBCBInitEP 0014  
                            __ptext0 1A82                              __ptext2 08BE  
                            __ptext3 0F9A                              __ptext4 194C  
                            __ptext5 1858                              __ptext6 119A  
                            __ptext7 1D3A                              __ptext8 1D4C  
                            __ptext9 1CC4                     __p_BootMain_text 0030  
                       ??_USBSuspend 004A                            _HIDInitEP 1B3C  
                     _ctrl_trf_state 0037                        ?_USBCBSuspend 004A  
    __size_of_USBCtrlTrfSetupHandler 0064                    ??_WriteFlashBlock 004B  
               end_of_initialization 1C3E          __size_of_USBCBCheckOtherReq 0006  
                  ??_WriteConfigBits 004B                   __end_of_USB_SD_Ptr 0807  
                _HIDGetReportHandler 1D8C      __end_of_USBProtocolResetHandler 194C  
                      __Lmediumconst 0000                       HIDTxReport@len 004C  
           ?_USBStdFeatureReqHandler 004A                ??_USBStdSetCfgHandler 004C  
                 __end_of_USBSuspend 1CE0                              postdec2 000FDD  
                      _ClearWatchdog 0004                              postinc0 000FEE  
                            postinc2 000FDE             _USBCtrlEPServiceComplete 1288  
               ?_HIDGetReportHandler 004A                            _PORTBbits 000F81  
                         ?_HIDInitEP 004A                    ??_LowVoltageCheck 004A  
          ??_USBDisableWithLongDelay 004C                            _TRISBbits 000F93  
                          _TRISDbits 000F95                       ??_USBCBSuspend 004A  
                       _PacketFromPC 0060      LoadBDTandSetUOWN@BDTIndexToLoad 004B  
    WriteFlashBlock@CorrectionFactor 002D                            _USTATSave 0034  
             _ctrl_trf_session_owner 0036                            _USTATbits 000F6C  
                        _WriteEEPROM 194C                     _short_pkt_status 0039  
                     ?_ClearWatchdog 004A               _USBCtrlTrfSetupHandler 1A1E  
                      ??_HIDRxReport 004D                     _ErasePageTracker 0020  
                      ??_HIDTxReport 004D                __end_of_USBDeviceInit 1D26  
              ??_HIDGetReportHandler 004A                            _BootState 002F  
         __end_of_ResetDeviceCleanly 0018                  start_initialization 1C1A  
            ?_USBStdGetStatusHandler 004A           __end_of_FlashSignatureWord 2008  
    __end_of_USBStdFeatureReqHandler 15C8                    __size_of_BootMain 0020  
                 _uint_delay_counter 0022             __end_of_InitializeSystem 1D76  
                          _SignFlash 0E84                            _ep0BoEven 000400  
                _USBStdGetDscHandler 168A                            _ProcessIO 08BE  
                   __CFG_LPT1OSC$OFF 000000                    __size_of_UserInit 0022  
                __end_of_HIDRxReport 17CE       __end_of_USBStdGetStatusHandler 1504  
   __size_of_USBProtocolResetHandler 0078                  __end_of_HIDTxReport 1858  
                  _USBCheckBusStatus 1D76                          ??_HIDInitEP 004A  
                        __pbssCOMRAM 0001         __size_of_USBCtrlTrfInHandler 0050  
                   _BootMain_absaddr 000030                   ?_USBCheckBusStatus 004A  
                  HIDTxReport@buffer 004A                 ?_USBStdGetDscHandler 004A  
         __end_of_USBWakeFromSuspend 1D4C                  ??_USBCheckBusStatus 004E  
                      _EP0OutEvenBuf 000414                           ?_SignFlash 004A  
                    ??_ClearWatchdog 004A                 __end_of_USBCBSuspend 1D68  
       __end_of_USBCBWakeFromSuspend 1D5A                           ?_ProcessIO 004A  
                          _hid_rpt01 088A                __end_of_USBSoftAttach 1CA2  
                          _idle_rate 0047                      _WriteFlashBlock 0F9A  
          __end_of_USBCheckBusStatus 1D84                      _WriteConfigBits 1858  
                        __smallconst 0800                ??_USBStdGetDscHandler 004A  
       __size_of_HIDSetReportHandler 0002         __size_of_USBCtrlTrfTxService 00C2  
                           _LATDbits 000F8C           __end_of_USBCheckHIDRequest 119A  
         ??_USBCtrlEPServiceComplete 004C                             _PIE2bits 000FA0  
                           _PIR2bits 000FA1                        ProcessIO@pROM 0009  
                           _RCONbits 000FD0                     __CFG_WDTPS$32768 000000  
                      ??_USBCBInitEP 004B          __size_of_USBCheckStdRequest 00CE  
                        _HIDRxReport 1732                      _LowVoltageCheck 1D8E  
                           _UCONbits 000F6D                          _HIDTxReport 17CE  
   __size_of_USBStdFeatureReqHandler 00C4                        ?_DelayRoutine 004A  
         __end_of_USBCBCheckOtherReq 1D8A                             _BootMain 0030  
        __end_of_USBStdSetCfgHandler 1A1E                       _hid_report_out 00042C  
                 __end_of_device_dsc 08B9                          ??_SignFlash 004B  
                         _EECON1bits 000FA6                         ?_WriteEEPROM 004A  
            ?_USBCtrlTrfSetupHandler 004A                             __Hrparam 0000  
                           __Lrparam 0000              __end_of_WriteFlashBlock 10A2  
                           _ep0BoOdd 000404                             _SetupPkt 003C  
            __end_of_WriteConfigBits 18D4                          ??_ProcessIO 0053  
                           _UserInit 1CA2              __size_of_BlinkUSBStatus 003A  
           _EP0OutOddNeedsArmingNext 0033           __size_of_USBCheckBusStatus 000E  
                     _hid_rpt_rx_len 0038              _USBProtocolResetHandler 18D4  
                     ??_DelayRoutine 004C                  __end_of_USBCBInitEP 1D3A  
            __size_of_USBDeviceTasks 00EE                             __ptext10 1D5A  
                           __ptext11 1A1E                             __ptext20 1D8A  
                           __ptext12 1288                             __ptext21 1D8C  
                           __ptext13 1372                             __ptext30 1D68  
                           __ptext22 1B90                             __ptext14 19B6  
                           __ptext31 1D12                             __ptext23 15C8  
                           __ptext15 1440                             __ptext40 1CFC  
                           __ptext32 1D76                             __ptext24 0E84  
                           __ptext16 168A                             __ptext41 0004  
                           __ptext33 1C76                             __ptext25 1C48  
                           __ptext17 1504                             __ptext42 1BE0  
                           __ptext34 18D4                             __ptext26 1D8E  
                           __ptext18 1D84                             __ptext35 1D26  
                           __ptext27 000C                             __ptext19 10A2  
                           __ptext36 1CA2                             __ptext28 17CE  
                           __ptext37 1B3C                             __ptext29 1732  
                           __ptext38 1AE0                             __ptext39 1CE0  
               _USBCBWakeFromSuspend 1D4C                   _ResetDeviceCleanly 000C  
     __end_of_USBCtrlTrfSetupHandler 1A82                        __size_of_main 005E  
              __size_of_USBCBSuspend 000E              __end_of_LowVoltageCheck 1D90  
                  ?_InitializeSystem 004A          __end_of_HIDGetReportHandler 1D8E  
                _USBCtrlTrfInHandler 1B90                   ??_InitializeSystem 004F  
                ?_ResetDeviceCleanly 004A                   _FlashSignatureWord 2006  
                           _usb_stat 003B          __p_FlashSignatureWord_const 2006  
                  _ProgrammedPointer 0001             ?_USBDisableWithLongDelay 004A  
              __CFG_CPUDIV$OSC1_PLL2 000000                        _hid_report_in 00046C  
                         _INTCONbits 000FF2                 ?_USBCtrlTrfInHandler 004A  
                   WriteFlashBlock@i 002E                 ??_ResetDeviceCleanly 004D  
                       _USBCBSuspend 1D5A                ?_USBCBWakeFromSuspend 004A  
             __size_of_USBDeviceInit 0014                    _ProgrammingBuffer 0100  
                   WriteConfigBits@i 002A                    _UnlockAndActivate 1C48  
                   ?_WriteFlashBlock 004A                   ?_UnlockAndActivate 004A  
                   ?_WriteConfigBits 004A                          _USBCBInitEP 1D26  
                 _USBWakeFromSuspend 1D3A            ??_USBProtocolResetHandler 004C  
            _USBStdFeatureReqHandler 1504                  _HIDSetReportHandler 1D8A  
                _USBCtrlTrfTxService 15C8                  ??_UnlockAndActivate 004A  
                ?_USBWakeFromSuspend 004A                ??_USBCtrlTrfInHandler 004B  
                 __CFG_FOSC$HSPLL_HS 000000                 ?_HIDSetReportHandler 004A  
               ?_USBCtrlTrfTxService 004A                 ??_USBWakeFromSuspend 004C  
          __end_of_UnlockAndActivate 1C76                     ?_LowVoltageCheck 004A  
               __end_of_DelayRoutine 1D12                       _usb_active_cfg 0048  
                  _LoadBDTandSetUOWN 1AE0  
